ARM GAS  C:\Users\teo8d\AppData\Local\Temp\ccpY3i9X.s 			page 1


   1              		.syntax unified
   2              		.cpu cortex-m3
   3              		.fpu softvfp
   4              		.eabi_attribute 20, 1
   5              		.eabi_attribute 21, 1
   6              		.eabi_attribute 23, 3
   7              		.eabi_attribute 24, 1
   8              		.eabi_attribute 25, 1
   9              		.eabi_attribute 26, 1
  10              		.eabi_attribute 30, 1
  11              		.eabi_attribute 34, 1
  12              		.eabi_attribute 18, 4
  13              		.thumb
  14              		.syntax unified
  15              		.file	"Calibration.c"
  16              		.text
  17              	.Ltext0:
  18              		.cfi_sections	.debug_frame
  19              		.section	.text.Calibrate_Hardware_Wakeup,"ax",%progbits
  20              		.align	2
  21              		.thumb
  22              		.thumb_func
  23              		.type	Calibrate_Hardware_Wakeup, %function
  24              	Calibrate_Hardware_Wakeup:
  25              	.LFB66:
  26              		.file 1 "Calibration.c"
   1:Calibration.c **** /*******************************************************************************
   2:Calibration.c **** * File Name: calibrate.c
   3:Calibration.c **** *
   4:Calibration.c **** * Description:
   5:Calibration.c **** *  Protocols to calibrate the current measuring circuitry i.e. TIA / delta sigma ADC with an IDAC
   6:Calibration.c **** *
   7:Calibration.c **** *********************************************************************************/
   8:Calibration.c **** 
   9:Calibration.c **** #include <project.h>
  10:Calibration.c **** #include "math.h"
  11:Calibration.c **** #include <stdio.h>
  12:Calibration.c **** #include "stdlib.h"
  13:Calibration.c **** 
  14:Calibration.c **** #include "Calibration.h"
  15:Calibration.c **** #include "Global_variables.h"
  16:Calibration.c **** 
  17:Calibration.c **** 
  18:Calibration.c **** const uint16 calibrate_TIA_resistor_list[] = {20, 30, 40, 80, 120, 250, 500, 1000}; //8 possible le
  19:Calibration.c **** uint16 static ADC_value;
  20:Calibration.c **** uint16 max_idac_value;
  21:Calibration.c **** uint16 min_idac_value;
  22:Calibration.c **** uint16 max_adc_value;
  23:Calibration.c **** uint16 min_adc_value;
  24:Calibration.c **** 
  25:Calibration.c **** /***************************************
  26:Calibration.c **** * Forward function references
  27:Calibration.c **** ***************************************/
  28:Calibration.c **** static void Calibrate_Hardware_Wakeup(void);
  29:Calibration.c **** static void calibrate_step(uint16 IDAC_value, uint8 IDAC_index);
  30:Calibration.c **** static void Calibrate_Hardware_Sleep(void);
  31:Calibration.c **** 
ARM GAS  C:\Users\teo8d\AppData\Local\Temp\ccpY3i9X.s 			page 2


  32:Calibration.c **** /******************************************************************************
  33:Calibration.c **** * Function Name: calibrate_TIA
  34:Calibration.c **** *******************************************************************************
  35:Calibration.c **** *
  36:Calibration.c **** * Summary:
  37:Calibration.c **** *  Calibrate the TIA circuit each time the current gain settings (for the Opamp in input of the ADC
  38:Calibration.c **** *
  39:Calibration.c **** * Global variables:
  40:Calibration.c **** *  uint8 TIA_resistor_value_index: index of whick TIA resistor to use, Supplied by USB input
  41:Calibration.c **** *
  42:Calibration.c **** *
  43:Calibration.c **** *
  44:Calibration.c **** *
  45:Calibration.c **** *******************************************************************************/
  46:Calibration.c **** 
  47:Calibration.c **** //void calibrate_TIA(uint8 TIA_resistor_value_index, uint8 ADC_buffer_index) {
  48:Calibration.c **** void calibrate_TIA(void) {
  49:Calibration.c ****     // The IDAC only 
  50:Calibration.c ****     
  51:Calibration.c ****     IDAC_calibrate_Start();
  52:Calibration.c ****     IDAC_calibrate_SetValue(0);  //set IDAC value to 0 uA
  53:Calibration.c ****     // start the hardware required
  54:Calibration.c ****     Calibrate_Hardware_Wakeup();
  55:Calibration.c ****     CyDelay(100);
  56:Calibration.c ****     // decide what currents to use based on TIA resistor and ADC buffer settings
  57:Calibration.c ****     uint16 resistor_value = calibrate_TIA_resistor_list[TIA_resistor_value_index]; // select a resi
  58:Calibration.c **** 
  59:Calibration.c ****     uint16 IDAC_setting = 0;
  60:Calibration.c ****     
  61:Calibration.c ****     // set input current to zero and read ADC
  62:Calibration.c ****     ADC_SigDel_StartConvert();
  63:Calibration.c ****     calibrate_step(IDAC_setting, 2); // user defined function to set the IDAC value and then read w
  64:Calibration.c ****     
  65:Calibration.c ****     // calculate the IDAC value needed to get a 1 Volt in the ADC
  66:Calibration.c ****     // the 8000 is because the IDAC has a 1/8 uA per bit and 8000=1000mV/(1/8 uA per bit)
  67:Calibration.c ****     float32 transfer = 8000./(resistor_value); //it's correct (resistor value is in kohm)
  68:Calibration.c ****     int transfer_int = (int) transfer;
  69:Calibration.c ****     if (transfer_int > 250) {  // the TIA needs too much current, reduce needs by half.  Is needed 
  70:Calibration.c ****         transfer_int /= 2;
  71:Calibration.c ****     }
  72:Calibration.c **** 
  73:Calibration.c ****     // We set different values for the IDAC: highest, 2nd highest, 2nd loweest and lowest
  74:Calibration.c ****     IDAC_calibrate_SetPolarity(IDAC_calibrate_SINK); // positive polarity
  75:Calibration.c ****     calibrate_step(transfer_int, 0);
  76:Calibration.c ****     calibrate_step(transfer_int/2, 1);
  77:Calibration.c ****     IDAC_calibrate_SetPolarity(IDAC_calibrate_SOURCE); //negative polarity
  78:Calibration.c ****     calibrate_step(transfer_int/2, 3);
  79:Calibration.c ****     calibrate_step(transfer_int, 4);
  80:Calibration.c ****     IDAC_calibrate_SetValue(0);
  81:Calibration.c ****     Calibrate_Hardware_Sleep();
  82:Calibration.c ****     
  83:Calibration.c ****     max_idac_value= CalibrationBuffer[0]; //look at the calibrate_step function to understand the i
  84:Calibration.c ****     min_idac_value= CalibrationBuffer[4];;
  85:Calibration.c ****     max_adc_value= CalibrationBuffer[5];
  86:Calibration.c ****     min_adc_value= CalibrationBuffer[9];
  87:Calibration.c ****     
  88:Calibration.c ****     //Linear regression by using the max and min values in order to extract the uA per ADC count
ARM GAS  C:\Users\teo8d\AppData\Local\Temp\ccpY3i9X.s 			page 3


  89:Calibration.c ****     
  90:Calibration.c ****     float32 uAs = (float)(max_idac_value + min_idac_value) / 8.0; //sum of IDAC values (in bit) bas
  91:Calibration.c ****     uA_per_adc_count = uAs / (max_adc_value - min_adc_value); // calculate the uA per ADC count val
  92:Calibration.c ****     
  93:Calibration.c ****     TIA_Calibration_ended_Flag = true;
  94:Calibration.c ****     
  95:Calibration.c **** }
  96:Calibration.c **** 
  97:Calibration.c **** /******************************************************************************
  98:Calibration.c **** * Function Name: calibrate_step
  99:Calibration.c **** *******************************************************************************
 100:Calibration.c **** *
 101:Calibration.c **** * Summary:
 102:Calibration.c **** *  Gets a single calibration data point by setting the calibration IDAC and reading
 103:Calibration.c **** *  the ADC count and saving them in the calibration_array
 104:Calibration.c **** *
 105:Calibration.c **** * Parameters:
 106:Calibration.c **** *  uint16 IDAC_value: value to set the calibration  IDAC to before measuring with the ADC
 107:Calibration.c **** *  uint8 IDAC_index: index of where in calibration_array to save the IDAC and ADC data
 108:Calibration.c **** *
 109:Calibration.c **** * Global variables:
 110:Calibration.c **** *  calibration_array: array of saved IDAC and ADC values
 111:Calibration.c **** *
 112:Calibration.c **** *******************************************************************************/
 113:Calibration.c **** 
 114:Calibration.c **** static void calibrate_step(uint16 IDAC_value, uint8 IDAC_index) {
 115:Calibration.c ****     
 116:Calibration.c ****     IDAC_calibrate_SetValue(IDAC_value);
 117:Calibration.c ****     CyDelay(100);  // allow the ADC to settle
 118:Calibration.c ****     ADC_value = ADC_SigDel_GetResult16();
 119:Calibration.c ****     CalibrationBuffer[IDAC_index] = IDAC_value; 
 120:Calibration.c ****     CalibrationBuffer[IDAC_index+5] = ADC_value;    
 121:Calibration.c ****         
 122:Calibration.c **** }
 123:Calibration.c **** 
 124:Calibration.c **** /******************************************************************************
 125:Calibration.c **** * Function Name: Calibrate_Hardware_Wakeup
 126:Calibration.c **** *******************************************************************************
 127:Calibration.c **** *
 128:Calibration.c **** * Summary:
 129:Calibration.c **** *  Wakeup all the hardware needed for the calibration routine and set the AMux to 
 130:Calibration.c **** *  the correct channel
 131:Calibration.c **** *
 132:Calibration.c **** *******************************************************************************/
 133:Calibration.c **** 
 134:Calibration.c **** static void Calibrate_Hardware_Wakeup(void) {
  27              		.loc 1 134 0
  28              		.cfi_startproc
  29              		@ args = 0, pretend = 0, frame = 0
  30              		@ frame_needed = 0, uses_anonymous_args = 0
  31 0000 08B5     		push	{r3, lr}
  32              		.cfi_def_cfa_offset 8
  33              		.cfi_offset 3, -8
  34              		.cfi_offset 14, -4
 135:Calibration.c ****     AMux_TIA_input_Select(AMux_TIA_calibrat_ch);
  35              		.loc 1 135 0
  36 0002 0020     		movs	r0, #0
ARM GAS  C:\Users\teo8d\AppData\Local\Temp\ccpY3i9X.s 			page 4


  37 0004 FFF7FEFF 		bl	AMux_TIA_input_Select
  38              	.LVL0:
 136:Calibration.c ****     TIA_Wakeup();
  39              		.loc 1 136 0
  40 0008 FFF7FEFF 		bl	TIA_Wakeup
  41              	.LVL1:
 137:Calibration.c ****     VDAC_TIA_Wakeup();
  42              		.loc 1 137 0
  43 000c FFF7FEFF 		bl	VDAC_TIA_Wakeup
  44              	.LVL2:
 138:Calibration.c ****     ADC_SigDel_Wakeup();
  45              		.loc 1 138 0
  46 0010 FFF7FEFF 		bl	ADC_SigDel_Wakeup
  47              	.LVL3:
  48 0014 08BD     		pop	{r3, pc}
  49              		.cfi_endproc
  50              	.LFE66:
  51              		.size	Calibrate_Hardware_Wakeup, .-Calibrate_Hardware_Wakeup
  52 0016 00BF     		.section	.text.calibrate_step,"ax",%progbits
  53              		.align	2
  54              		.thumb
  55              		.thumb_func
  56              		.type	calibrate_step, %function
  57              	calibrate_step:
  58              	.LFB65:
 114:Calibration.c ****     
  59              		.loc 1 114 0
  60              		.cfi_startproc
  61              		@ args = 0, pretend = 0, frame = 0
  62              		@ frame_needed = 0, uses_anonymous_args = 0
  63              	.LVL4:
  64 0000 38B5     		push	{r3, r4, r5, lr}
  65              		.cfi_def_cfa_offset 16
  66              		.cfi_offset 3, -16
  67              		.cfi_offset 4, -12
  68              		.cfi_offset 5, -8
  69              		.cfi_offset 14, -4
  70 0002 0546     		mov	r5, r0
  71 0004 0C46     		mov	r4, r1
 116:Calibration.c ****     CyDelay(100);  // allow the ADC to settle
  72              		.loc 1 116 0
  73 0006 C0B2     		uxtb	r0, r0
  74              	.LVL5:
  75 0008 FFF7FEFF 		bl	IDAC_calibrate_SetValue
  76              	.LVL6:
 117:Calibration.c ****     ADC_value = ADC_SigDel_GetResult16();
  77              		.loc 1 117 0
  78 000c 6420     		movs	r0, #100
  79 000e FFF7FEFF 		bl	CyDelay
  80              	.LVL7:
 118:Calibration.c ****     CalibrationBuffer[IDAC_index] = IDAC_value; 
  81              		.loc 1 118 0
  82 0012 FFF7FEFF 		bl	ADC_SigDel_GetResult16
  83              	.LVL8:
 119:Calibration.c ****     CalibrationBuffer[IDAC_index+5] = ADC_value;    
  84              		.loc 1 119 0
  85 0016 034B     		ldr	r3, .L5
ARM GAS  C:\Users\teo8d\AppData\Local\Temp\ccpY3i9X.s 			page 5


  86 0018 23F81450 		strh	r5, [r3, r4, lsl #1]	@ movhi
 120:Calibration.c ****         
  87              		.loc 1 120 0
  88 001c 0534     		adds	r4, r4, #5
  89 001e 23F81400 		strh	r0, [r3, r4, lsl #1]	@ movhi
  90 0022 38BD     		pop	{r3, r4, r5, pc}
  91              	.L6:
  92              		.align	2
  93              	.L5:
  94 0024 00000000 		.word	CalibrationBuffer
  95              		.cfi_endproc
  96              	.LFE65:
  97              		.size	calibrate_step, .-calibrate_step
  98              		.section	.text.Calibrate_Hardware_Sleep,"ax",%progbits
  99              		.align	2
 100              		.thumb
 101              		.thumb_func
 102              		.type	Calibrate_Hardware_Sleep, %function
 103              	Calibrate_Hardware_Sleep:
 104              	.LFB67:
 139:Calibration.c **** }
 140:Calibration.c **** 
 141:Calibration.c **** /******************************************************************************
 142:Calibration.c **** * Function Name: Calibrate_Hardware_Sleep
 143:Calibration.c **** *******************************************************************************
 144:Calibration.c **** *
 145:Calibration.c **** * Summary:
 146:Calibration.c **** *  Put to sleep all the hardware needed for the calibration routine, stop  
 147:Calibration.c **** *  the IDAC, and set the AMux to the correct channel
 148:Calibration.c **** *
 149:Calibration.c **** *******************************************************************************/
 150:Calibration.c **** 
 151:Calibration.c **** static void Calibrate_Hardware_Sleep(void) {
 105              		.loc 1 151 0
 106              		.cfi_startproc
 107              		@ args = 0, pretend = 0, frame = 0
 108              		@ frame_needed = 0, uses_anonymous_args = 0
 109 0000 08B5     		push	{r3, lr}
 110              		.cfi_def_cfa_offset 8
 111              		.cfi_offset 3, -8
 112              		.cfi_offset 14, -4
 152:Calibration.c ****     AMux_TIA_input_Select(AMux_TIA_measure_ch);
 113              		.loc 1 152 0
 114 0002 0120     		movs	r0, #1
 115 0004 FFF7FEFF 		bl	AMux_TIA_input_Select
 116              	.LVL9:
 153:Calibration.c ****     TIA_Sleep();
 117              		.loc 1 153 0
 118 0008 FFF7FEFF 		bl	TIA_Sleep
 119              	.LVL10:
 154:Calibration.c ****     VDAC_TIA_Sleep();
 120              		.loc 1 154 0
 121 000c FFF7FEFF 		bl	VDAC_TIA_Sleep
 122              	.LVL11:
 155:Calibration.c ****     ADC_SigDel_Sleep();
 123              		.loc 1 155 0
 124 0010 FFF7FEFF 		bl	ADC_SigDel_Sleep
ARM GAS  C:\Users\teo8d\AppData\Local\Temp\ccpY3i9X.s 			page 6


 125              	.LVL12:
 156:Calibration.c ****     IDAC_calibrate_Stop();
 126              		.loc 1 156 0
 127 0014 FFF7FEFF 		bl	IDAC_calibrate_Stop
 128              	.LVL13:
 129 0018 08BD     		pop	{r3, pc}
 130              		.cfi_endproc
 131              	.LFE67:
 132              		.size	Calibrate_Hardware_Sleep, .-Calibrate_Hardware_Sleep
 133              		.global	__aeabi_i2d
 134              		.global	__aeabi_ddiv
 135              		.global	__aeabi_d2f
 136              		.global	__aeabi_f2iz
 137              		.global	__aeabi_i2f
 138              		.global	__aeabi_fmul
 139              		.global	__aeabi_fdiv
 140 001a 00BF     		.section	.text.calibrate_TIA,"ax",%progbits
 141              		.align	2
 142              		.global	calibrate_TIA
 143              		.thumb
 144              		.thumb_func
 145              		.type	calibrate_TIA, %function
 146              	calibrate_TIA:
 147              	.LFB64:
  48:Calibration.c ****     // The IDAC only 
 148              		.loc 1 48 0
 149              		.cfi_startproc
 150              		@ args = 0, pretend = 0, frame = 0
 151              		@ frame_needed = 0, uses_anonymous_args = 0
 152 0000 70B5     		push	{r4, r5, r6, lr}
 153              		.cfi_def_cfa_offset 16
 154              		.cfi_offset 4, -16
 155              		.cfi_offset 5, -12
 156              		.cfi_offset 6, -8
 157              		.cfi_offset 14, -4
  51:Calibration.c ****     IDAC_calibrate_SetValue(0);  //set IDAC value to 0 uA
 158              		.loc 1 51 0
 159 0002 FFF7FEFF 		bl	IDAC_calibrate_Start
 160              	.LVL14:
  52:Calibration.c ****     // start the hardware required
 161              		.loc 1 52 0
 162 0006 0020     		movs	r0, #0
 163 0008 FFF7FEFF 		bl	IDAC_calibrate_SetValue
 164              	.LVL15:
  54:Calibration.c ****     CyDelay(100);
 165              		.loc 1 54 0
 166 000c FFF7FEFF 		bl	Calibrate_Hardware_Wakeup
 167              	.LVL16:
  55:Calibration.c ****     // decide what currents to use based on TIA resistor and ADC buffer settings
 168              		.loc 1 55 0
 169 0010 6420     		movs	r0, #100
 170 0012 FFF7FEFF 		bl	CyDelay
 171              	.LVL17:
  57:Calibration.c **** 
 172              		.loc 1 57 0
 173 0016 304B     		ldr	r3, .L12
 174 0018 1A78     		ldrb	r2, [r3]	@ zero_extendqisi2
ARM GAS  C:\Users\teo8d\AppData\Local\Temp\ccpY3i9X.s 			page 7


 175 001a 304B     		ldr	r3, .L12+4
 176 001c 33F81240 		ldrh	r4, [r3, r2, lsl #1]
 177              	.LVL18:
  62:Calibration.c ****     calibrate_step(IDAC_setting, 2); // user defined function to set the IDAC value and then read w
 178              		.loc 1 62 0
 179 0020 FFF7FEFF 		bl	ADC_SigDel_StartConvert
 180              	.LVL19:
  63:Calibration.c ****     
 181              		.loc 1 63 0
 182 0024 0221     		movs	r1, #2
 183 0026 0020     		movs	r0, #0
 184 0028 FFF7FEFF 		bl	calibrate_step
 185              	.LVL20:
  67:Calibration.c ****     int transfer_int = (int) transfer;
 186              		.loc 1 67 0
 187 002c 2046     		mov	r0, r4
 188 002e FFF7FEFF 		bl	__aeabi_i2d
 189              	.LVL21:
 190 0032 0246     		mov	r2, r0
 191 0034 0B46     		mov	r3, r1
 192 0036 0020     		movs	r0, #0
 193 0038 2949     		ldr	r1, .L12+8
 194 003a FFF7FEFF 		bl	__aeabi_ddiv
 195              	.LVL22:
 196 003e FFF7FEFF 		bl	__aeabi_d2f
 197              	.LVL23:
  68:Calibration.c ****     if (transfer_int > 250) {  // the TIA needs too much current, reduce needs by half.  Is needed 
 198              		.loc 1 68 0
 199 0042 FFF7FEFF 		bl	__aeabi_f2iz
 200              	.LVL24:
 201 0046 0446     		mov	r4, r0
 202              	.LVL25:
  69:Calibration.c ****         transfer_int /= 2;
 203              		.loc 1 69 0
 204 0048 FA28     		cmp	r0, #250
 205 004a 02DD     		ble	.L10
  70:Calibration.c ****     }
 206              		.loc 1 70 0
 207 004c 00EBD074 		add	r4, r0, r0, lsr #31
 208 0050 6410     		asrs	r4, r4, #1
 209              	.LVL26:
 210              	.L10:
  74:Calibration.c ****     calibrate_step(transfer_int, 0);
 211              		.loc 1 74 0
 212 0052 0420     		movs	r0, #4
 213 0054 FFF7FEFF 		bl	IDAC_calibrate_SetPolarity
 214              	.LVL27:
  75:Calibration.c ****     calibrate_step(transfer_int/2, 1);
 215              		.loc 1 75 0
 216 0058 A5B2     		uxth	r5, r4
 217 005a 0021     		movs	r1, #0
 218 005c 2846     		mov	r0, r5
 219 005e FFF7FEFF 		bl	calibrate_step
 220              	.LVL28:
  76:Calibration.c ****     IDAC_calibrate_SetPolarity(IDAC_calibrate_SOURCE); //negative polarity
 221              		.loc 1 76 0
 222 0062 04EBD474 		add	r4, r4, r4, lsr #31
ARM GAS  C:\Users\teo8d\AppData\Local\Temp\ccpY3i9X.s 			page 8


 223              	.LVL29:
 224 0066 C4F34F04 		ubfx	r4, r4, #1, #16
 225 006a 0121     		movs	r1, #1
 226 006c 2046     		mov	r0, r4
 227 006e FFF7FEFF 		bl	calibrate_step
 228              	.LVL30:
  77:Calibration.c ****     calibrate_step(transfer_int/2, 3);
 229              		.loc 1 77 0
 230 0072 0020     		movs	r0, #0
 231 0074 FFF7FEFF 		bl	IDAC_calibrate_SetPolarity
 232              	.LVL31:
  78:Calibration.c ****     calibrate_step(transfer_int, 4);
 233              		.loc 1 78 0
 234 0078 0321     		movs	r1, #3
 235 007a 2046     		mov	r0, r4
 236 007c FFF7FEFF 		bl	calibrate_step
 237              	.LVL32:
  79:Calibration.c ****     IDAC_calibrate_SetValue(0);
 238              		.loc 1 79 0
 239 0080 0421     		movs	r1, #4
 240 0082 2846     		mov	r0, r5
 241 0084 FFF7FEFF 		bl	calibrate_step
 242              	.LVL33:
  80:Calibration.c ****     Calibrate_Hardware_Sleep();
 243              		.loc 1 80 0
 244 0088 0020     		movs	r0, #0
 245 008a FFF7FEFF 		bl	IDAC_calibrate_SetValue
 246              	.LVL34:
  81:Calibration.c ****     
 247              		.loc 1 81 0
 248 008e FFF7FEFF 		bl	Calibrate_Hardware_Sleep
 249              	.LVL35:
  83:Calibration.c ****     min_idac_value= CalibrationBuffer[4];;
 250              		.loc 1 83 0
 251 0092 144B     		ldr	r3, .L12+12
 252 0094 1888     		ldrh	r0, [r3]
 253 0096 144A     		ldr	r2, .L12+16
 254 0098 1080     		strh	r0, [r2]	@ movhi
  84:Calibration.c ****     max_adc_value= CalibrationBuffer[5];
 255              		.loc 1 84 0
 256 009a 1A89     		ldrh	r2, [r3, #8]
 257 009c 1349     		ldr	r1, .L12+20
 258 009e 0A80     		strh	r2, [r1]	@ movhi
  85:Calibration.c ****     min_adc_value= CalibrationBuffer[9];
 259              		.loc 1 85 0
 260 00a0 5D89     		ldrh	r5, [r3, #10]
 261 00a2 1349     		ldr	r1, .L12+24
 262 00a4 0D80     		strh	r5, [r1]	@ movhi
  86:Calibration.c ****     
 263              		.loc 1 86 0
 264 00a6 5C8A     		ldrh	r4, [r3, #18]
 265 00a8 124B     		ldr	r3, .L12+28
 266 00aa 1C80     		strh	r4, [r3]	@ movhi
  90:Calibration.c ****     uA_per_adc_count = uAs / (max_adc_value - min_adc_value); // calculate the uA per ADC count val
 267              		.loc 1 90 0
 268 00ac 1044     		add	r0, r0, r2
 269 00ae FFF7FEFF 		bl	__aeabi_i2f
ARM GAS  C:\Users\teo8d\AppData\Local\Temp\ccpY3i9X.s 			page 9


 270              	.LVL36:
 271 00b2 4FF07851 		mov	r1, #1040187392
 272 00b6 FFF7FEFF 		bl	__aeabi_fmul
 273              	.LVL37:
 274 00ba 0646     		mov	r6, r0
 275              	.LVL38:
  91:Calibration.c ****     
 276              		.loc 1 91 0
 277 00bc 281B     		subs	r0, r5, r4
 278              	.LVL39:
 279 00be FFF7FEFF 		bl	__aeabi_i2f
 280              	.LVL40:
 281 00c2 0146     		mov	r1, r0
 282 00c4 3046     		mov	r0, r6
 283 00c6 FFF7FEFF 		bl	__aeabi_fdiv
 284              	.LVL41:
 285 00ca 0B4B     		ldr	r3, .L12+32
 286 00cc 1860     		str	r0, [r3]	@ float
  93:Calibration.c ****     
 287              		.loc 1 93 0
 288 00ce 0122     		movs	r2, #1
 289 00d0 0A4B     		ldr	r3, .L12+36
 290 00d2 1A70     		strb	r2, [r3]
 291 00d4 70BD     		pop	{r4, r5, r6, pc}
 292              	.LVL42:
 293              	.L13:
 294 00d6 00BF     		.align	2
 295              	.L12:
 296 00d8 00000000 		.word	TIA_resistor_value_index
 297 00dc 00000000 		.word	.LANCHOR0
 298 00e0 0040BF40 		.word	1086275584
 299 00e4 00000000 		.word	CalibrationBuffer
 300 00e8 00000000 		.word	max_idac_value
 301 00ec 00000000 		.word	min_idac_value
 302 00f0 00000000 		.word	max_adc_value
 303 00f4 00000000 		.word	min_adc_value
 304 00f8 00000000 		.word	uA_per_adc_count
 305 00fc 00000000 		.word	TIA_Calibration_ended_Flag
 306              		.cfi_endproc
 307              	.LFE64:
 308              		.size	calibrate_TIA, .-calibrate_TIA
 309              		.comm	min_adc_value,2,2
 310              		.comm	max_adc_value,2,2
 311              		.comm	min_idac_value,2,2
 312              		.comm	max_idac_value,2,2
 313              		.global	calibrate_TIA_resistor_list
 314              		.comm	command_lenght,1,1
 315              		.comm	command,40,4
 316              		.comm	selected_scan_rate,2,2
 317              		.comm	potential_max_current,2,2
 318              		.comm	end_dac_value,2,2
 319              		.comm	start_dac_value,2,2
 320              		.comm	uA_per_adc_count,4,4
 321              		.comm	ADC_CV_array,10000,4
 322              		.comm	lut_length,2,2
 323              		.comm	lut_index,2,2
 324              		.comm	waveform_amp_lut,4000,4
ARM GAS  C:\Users\teo8d\AppData\Local\Temp\ccpY3i9X.s 			page 10


 325              		.comm	waveform_CV_lut,10000,4
 326              		.comm	lut_value,2,2
 327              		.comm	dac_ground_value,2,2
 328              		.comm	Update_timevalue_Flag,1,1
 329              		.comm	Update_endvalue_Flag,1,1
 330              		.comm	Update_startvalue_Flag,1,1
 331              		.comm	Update_scanrate_Flag,1,1
 332              		.comm	Load_EEPROM_Flag,1,1
 333              		.comm	AMP_ready_Flag,1,1
 334              		.comm	CV_ready_Flag,1,1
 335              		.comm	TIA_Calibration_ended_Flag,1,1
 336              		.comm	Command_ready_Flag,1,1
 337              		.comm	Input_Flag,1,1
 338              		.comm	ADC_buffer_index,1,1
 339              		.comm	TIA_resistor_value_index,1,1
 340              		.comm	CalibrationBuffer,20,4
 341              		.section	.rodata
 342              		.align	2
 343              		.set	.LANCHOR0,. + 0
 344              		.type	calibrate_TIA_resistor_list, %object
 345              		.size	calibrate_TIA_resistor_list, 16
 346              	calibrate_TIA_resistor_list:
 347 0000 1400     		.short	20
 348 0002 1E00     		.short	30
 349 0004 2800     		.short	40
 350 0006 5000     		.short	80
 351 0008 7800     		.short	120
 352 000a FA00     		.short	250
 353 000c F401     		.short	500
 354 000e E803     		.short	1000
 355              		.text
 356              	.Letext0:
 357              		.file 2 "c:\\program files (x86)\\cypress\\psoc creator\\4.4\\psoc creator\\import\\gnu\\arm\\5.4.
 358              		.file 3 "c:\\program files (x86)\\cypress\\psoc creator\\4.4\\psoc creator\\import\\gnu\\arm\\5.4.
 359              		.file 4 "Generated_Source\\PSoC5/cytypes.h"
 360              		.file 5 "Generated_Source\\PSoC5/core_cm3.h"
 361              		.file 6 "Calibration.h"
 362              		.file 7 "Global_variables.h"
 363              		.file 8 "Generated_Source\\PSoC5/AMux_TIA_input.h"
 364              		.file 9 "Generated_Source\\PSoC5/TIA.h"
 365              		.file 10 "Generated_Source\\PSoC5/VDAC_TIA.h"
 366              		.file 11 "Generated_Source\\PSoC5/ADC_SigDel.h"
 367              		.file 12 "Generated_Source\\PSoC5/IDAC_calibrate.h"
 368              		.file 13 "Generated_Source\\PSoC5/CyLib.h"