ARM GAS  C:\Users\teo8d\AppData\Local\Temp\ccuWUaGA.s 			page 1


   1              		.syntax unified
   2              		.cpu cortex-m3
   3              		.fpu softvfp
   4              		.eabi_attribute 20, 1
   5              		.eabi_attribute 21, 1
   6              		.eabi_attribute 23, 3
   7              		.eabi_attribute 24, 1
   8              		.eabi_attribute 25, 1
   9              		.eabi_attribute 26, 1
  10              		.eabi_attribute 30, 1
  11              		.eabi_attribute 34, 1
  12              		.eabi_attribute 18, 4
  13              		.thumb
  14              		.syntax unified
  15              		.file	"Helper_functions.c"
  16              		.text
  17              	.Ltext0:
  18              		.cfi_sections	.debug_frame
  19              		.section	.text.helper_HardwareStart,"ax",%progbits
  20              		.align	2
  21              		.global	helper_HardwareStart
  22              		.thumb
  23              		.thumb_func
  24              		.type	helper_HardwareStart, %function
  25              	helper_HardwareStart:
  26              	.LFB64:
  27              		.file 1 "Helper_functions.c"
   1:Helper_functions.c **** /*******************************************************************************
   2:Helper_functions.c **** * File Name: Helper_functions.c
   3:Helper_functions.c **** *
   4:Helper_functions.c **** * Description:
   5:Helper_functions.c **** *  Functions used by main.
   6:Helper_functions.c **** *
   7:Helper_functions.c **** *********************************************************************************/
   8:Helper_functions.c **** 
   9:Helper_functions.c **** #include "Helper_functions.h"
  10:Helper_functions.c **** 
  11:Helper_functions.c **** 
  12:Helper_functions.c **** 
  13:Helper_functions.c **** /******************************************************************************
  14:Helper_functions.c **** * Function Name: helper_HardwareSetup
  15:Helper_functions.c **** *******************************************************************************
  16:Helper_functions.c **** *
  17:Helper_functions.c **** * Summary:
  18:Helper_functions.c **** *    Setup all the hardware needed for an experiment.  This will start all the hardware
  19:Helper_functions.c **** *    and then put them to sleep so they can be awoke for an experiment.  Connect all the 
  20:Helper_functions.c **** *    defualt analog muxes
  21:Helper_functions.c **** *
  22:Helper_functions.c **** *******************************************************************************/
  23:Helper_functions.c **** 
  24:Helper_functions.c **** 
  25:Helper_functions.c **** void helper_HardwareSetup(void) {
  26:Helper_functions.c ****     helper_HardwareStart();
  27:Helper_functions.c ****     helper_HardwareSleep();
  28:Helper_functions.c **** 
  29:Helper_functions.c ****     AMux_TIA_input_Init();
  30:Helper_functions.c ****     AMux_TIA_resistor_bypass_Init();
ARM GAS  C:\Users\teo8d\AppData\Local\Temp\ccuWUaGA.s 			page 2


  31:Helper_functions.c ****     DVDAC_Start(); 
  32:Helper_functions.c ****     
  33:Helper_functions.c ****     // iniatalize the analog muxes connections 
  34:Helper_functions.c ****     AMux_TIA_input_Select(AMux_TIA_working_electrode_ch);  // Connect the working electrode
  35:Helper_functions.c ****     AMux_TIA_resistor_bypass_Select(0);  // Start with no extra TIA resistor
  36:Helper_functions.c **** 
  37:Helper_functions.c **** }
  38:Helper_functions.c **** 
  39:Helper_functions.c **** /******************************************************************************
  40:Helper_functions.c **** * Function Name: helper_HardwareStart
  41:Helper_functions.c **** *******************************************************************************
  42:Helper_functions.c **** *
  43:Helper_functions.c **** * Summary:
  44:Helper_functions.c **** *    Start all the hardware needed for an experiment.
  45:Helper_functions.c **** *
  46:Helper_functions.c **** *******************************************************************************/
  47:Helper_functions.c **** 
  48:Helper_functions.c **** void helper_HardwareStart(void){  // start all the components that have to be on for a reading
  28              		.loc 1 48 0
  29              		.cfi_startproc
  30              		@ args = 0, pretend = 0, frame = 0
  31              		@ frame_needed = 0, uses_anonymous_args = 0
  32 0000 08B5     		push	{r3, lr}
  33              		.cfi_def_cfa_offset 8
  34              		.cfi_offset 3, -8
  35              		.cfi_offset 14, -4
  49:Helper_functions.c ****     ADC_SigDel_Start();  
  36              		.loc 1 49 0
  37 0002 FFF7FEFF 		bl	ADC_SigDel_Start
  38              	.LVL0:
  50:Helper_functions.c ****     TIA_Start(); 
  39              		.loc 1 50 0
  40 0006 FFF7FEFF 		bl	TIA_Start
  41              	.LVL1:
  51:Helper_functions.c ****     VDAC_TIA_Start();  
  42              		.loc 1 51 0
  43 000a FFF7FEFF 		bl	VDAC_TIA_Start
  44              	.LVL2:
  52:Helper_functions.c ****     Opamp_Aux_Start();  
  45              		.loc 1 52 0
  46 000e FFF7FEFF 		bl	Opamp_Aux_Start
  47              	.LVL3:
  53:Helper_functions.c ****     PWM_isr_Start();
  48              		.loc 1 53 0
  49 0012 FFF7FEFF 		bl	PWM_isr_Start
  50              	.LVL4:
  51 0016 08BD     		pop	{r3, pc}
  52              		.cfi_endproc
  53              	.LFE64:
  54              		.size	helper_HardwareStart, .-helper_HardwareStart
  55              		.section	.text.helper_HardwareWakeup,"ax",%progbits
  56              		.align	2
  57              		.global	helper_HardwareWakeup
  58              		.thumb
  59              		.thumb_func
  60              		.type	helper_HardwareWakeup, %function
  61              	helper_HardwareWakeup:
ARM GAS  C:\Users\teo8d\AppData\Local\Temp\ccuWUaGA.s 			page 3


  62              	.LFB65:
  54:Helper_functions.c ****     
  55:Helper_functions.c ****     //DVDAC is already started
  56:Helper_functions.c ****     
  57:Helper_functions.c **** }
  58:Helper_functions.c **** 
  59:Helper_functions.c **** /******************************************************************************
  60:Helper_functions.c **** * Function Name: helper_HardwareWakeup
  61:Helper_functions.c **** *******************************************************************************
  62:Helper_functions.c **** *
  63:Helper_functions.c **** * Summary:
  64:Helper_functions.c **** *    Start all the hardware needed for an experiment.
  65:Helper_functions.c **** *
  66:Helper_functions.c **** *******************************************************************************/
  67:Helper_functions.c **** 
  68:Helper_functions.c **** void helper_HardwareWakeup(void){  // wakeup all the components that have to be on for a reading
  63              		.loc 1 68 0
  64              		.cfi_startproc
  65              		@ args = 0, pretend = 0, frame = 0
  66              		@ frame_needed = 0, uses_anonymous_args = 0
  67 0000 08B5     		push	{r3, lr}
  68              		.cfi_def_cfa_offset 8
  69              		.cfi_offset 3, -8
  70              		.cfi_offset 14, -4
  69:Helper_functions.c ****     ADC_SigDel_Wakeup();
  71              		.loc 1 69 0
  72 0002 FFF7FEFF 		bl	ADC_SigDel_Wakeup
  73              	.LVL5:
  70:Helper_functions.c ****     TIA_Wakeup();
  74              		.loc 1 70 0
  75 0006 FFF7FEFF 		bl	TIA_Wakeup
  76              	.LVL6:
  71:Helper_functions.c ****     VDAC_TIA_Wakeup();
  77              		.loc 1 71 0
  78 000a FFF7FEFF 		bl	VDAC_TIA_Wakeup
  79              	.LVL7:
  72:Helper_functions.c ****     DVDAC_Wakeup();
  80              		.loc 1 72 0
  81 000e FFF7FEFF 		bl	DVDAC_Wakeup
  82              	.LVL8:
  73:Helper_functions.c ****     CyDelay(1);
  83              		.loc 1 73 0
  84 0012 0120     		movs	r0, #1
  85 0014 FFF7FEFF 		bl	CyDelay
  86              	.LVL9:
  74:Helper_functions.c ****     DVDAC_SetValue(lut_value);
  87              		.loc 1 74 0
  88 0018 054B     		ldr	r3, .L5
  89 001a 1888     		ldrh	r0, [r3]
  90 001c FFF7FEFF 		bl	DVDAC_SetValue
  91              	.LVL10:
  75:Helper_functions.c ****     CyDelay(10);
  92              		.loc 1 75 0
  93 0020 0A20     		movs	r0, #10
  94 0022 FFF7FEFF 		bl	CyDelay
  95              	.LVL11:
  76:Helper_functions.c ****     Opamp_Aux_Wakeup();
ARM GAS  C:\Users\teo8d\AppData\Local\Temp\ccuWUaGA.s 			page 4


  96              		.loc 1 76 0
  97 0026 FFF7FEFF 		bl	Opamp_Aux_Wakeup
  98              	.LVL12:
  77:Helper_functions.c ****     
  78:Helper_functions.c ****     PWM_isr_Wakeup();
  99              		.loc 1 78 0
 100 002a FFF7FEFF 		bl	PWM_isr_Wakeup
 101              	.LVL13:
 102 002e 08BD     		pop	{r3, pc}
 103              	.L6:
 104              		.align	2
 105              	.L5:
 106 0030 00000000 		.word	lut_value
 107              		.cfi_endproc
 108              	.LFE65:
 109              		.size	helper_HardwareWakeup, .-helper_HardwareWakeup
 110              		.section	.text.helper_HardwareSleep,"ax",%progbits
 111              		.align	2
 112              		.global	helper_HardwareSleep
 113              		.thumb
 114              		.thumb_func
 115              		.type	helper_HardwareSleep, %function
 116              	helper_HardwareSleep:
 117              	.LFB66:
  79:Helper_functions.c ****     
  80:Helper_functions.c **** }
  81:Helper_functions.c **** 
  82:Helper_functions.c **** /******************************************************************************
  83:Helper_functions.c **** * Function Name: helper_HardwareWakeup
  84:Helper_functions.c **** *******************************************************************************
  85:Helper_functions.c **** *
  86:Helper_functions.c **** * Summary:
  87:Helper_functions.c **** *    Put to sleep all the hardware needed for an experiment.
  88:Helper_functions.c **** *
  89:Helper_functions.c **** *******************************************************************************/
  90:Helper_functions.c **** 
  91:Helper_functions.c **** void helper_HardwareSleep(void){  // put to sleep all the components that have to be on for a readi
 118              		.loc 1 91 0
 119              		.cfi_startproc
 120              		@ args = 0, pretend = 0, frame = 0
 121              		@ frame_needed = 0, uses_anonymous_args = 0
 122 0000 08B5     		push	{r3, lr}
 123              		.cfi_def_cfa_offset 8
 124              		.cfi_offset 3, -8
 125              		.cfi_offset 14, -4
  92:Helper_functions.c ****     ADC_SigDel_Sleep();
 126              		.loc 1 92 0
 127 0002 FFF7FEFF 		bl	ADC_SigDel_Sleep
 128              	.LVL14:
  93:Helper_functions.c ****     DVDAC_Sleep();
 129              		.loc 1 93 0
 130 0006 FFF7FEFF 		bl	DVDAC_Sleep
 131              	.LVL15:
  94:Helper_functions.c ****     TIA_Sleep();
 132              		.loc 1 94 0
 133 000a FFF7FEFF 		bl	TIA_Sleep
 134              	.LVL16:
ARM GAS  C:\Users\teo8d\AppData\Local\Temp\ccuWUaGA.s 			page 5


  95:Helper_functions.c ****     VDAC_TIA_Sleep();
 135              		.loc 1 95 0
 136 000e FFF7FEFF 		bl	VDAC_TIA_Sleep
 137              	.LVL17:
  96:Helper_functions.c ****     Opamp_Aux_Sleep();
 138              		.loc 1 96 0
 139 0012 FFF7FEFF 		bl	Opamp_Aux_Sleep
 140              	.LVL18:
  97:Helper_functions.c ****     PWM_isr_Sleep();
 141              		.loc 1 97 0
 142 0016 FFF7FEFF 		bl	PWM_isr_Sleep
 143              	.LVL19:
 144 001a 08BD     		pop	{r3, pc}
 145              		.cfi_endproc
 146              	.LFE66:
 147              		.size	helper_HardwareSleep, .-helper_HardwareSleep
 148              		.section	.text.helper_HardwareSetup,"ax",%progbits
 149              		.align	2
 150              		.global	helper_HardwareSetup
 151              		.thumb
 152              		.thumb_func
 153              		.type	helper_HardwareSetup, %function
 154              	helper_HardwareSetup:
 155              	.LFB63:
  25:Helper_functions.c ****     helper_HardwareStart();
 156              		.loc 1 25 0
 157              		.cfi_startproc
 158              		@ args = 0, pretend = 0, frame = 0
 159              		@ frame_needed = 0, uses_anonymous_args = 0
 160 0000 08B5     		push	{r3, lr}
 161              		.cfi_def_cfa_offset 8
 162              		.cfi_offset 3, -8
 163              		.cfi_offset 14, -4
  26:Helper_functions.c ****     helper_HardwareSleep();
 164              		.loc 1 26 0
 165 0002 FFF7FEFF 		bl	helper_HardwareStart
 166              	.LVL20:
  27:Helper_functions.c **** 
 167              		.loc 1 27 0
 168 0006 FFF7FEFF 		bl	helper_HardwareSleep
 169              	.LVL21:
  29:Helper_functions.c ****     AMux_TIA_resistor_bypass_Init();
 170              		.loc 1 29 0
 171 000a FFF7FEFF 		bl	AMux_TIA_input_Start
 172              	.LVL22:
  30:Helper_functions.c ****     DVDAC_Start(); 
 173              		.loc 1 30 0
 174 000e FFF7FEFF 		bl	AMux_TIA_resistor_bypass_Start
 175              	.LVL23:
  31:Helper_functions.c ****     
 176              		.loc 1 31 0
 177 0012 FFF7FEFF 		bl	DVDAC_Start
 178              	.LVL24:
  34:Helper_functions.c ****     AMux_TIA_resistor_bypass_Select(0);  // Start with no extra TIA resistor
 179              		.loc 1 34 0
 180 0016 0120     		movs	r0, #1
 181 0018 FFF7FEFF 		bl	AMux_TIA_input_Select
ARM GAS  C:\Users\teo8d\AppData\Local\Temp\ccuWUaGA.s 			page 6


 182              	.LVL25:
  35:Helper_functions.c **** 
 183              		.loc 1 35 0
 184 001c 0020     		movs	r0, #0
 185 001e FFF7FEFF 		bl	AMux_TIA_resistor_bypass_Select
 186              	.LVL26:
 187 0022 08BD     		pop	{r3, pc}
 188              		.cfi_endproc
 189              	.LFE63:
 190              		.size	helper_HardwareSetup, .-helper_HardwareSetup
 191              		.section	.text.helper_Convert2Dec,"ax",%progbits
 192              		.align	2
 193              		.global	helper_Convert2Dec
 194              		.thumb
 195              		.thumb_func
 196              		.type	helper_Convert2Dec, %function
 197              	helper_Convert2Dec:
 198              	.LFB67:
  98:Helper_functions.c ****     
  99:Helper_functions.c **** }
 100:Helper_functions.c **** 
 101:Helper_functions.c **** uint16 helper_Convert2Dec(uint8 array[], uint8 len){
 199              		.loc 1 101 0
 200              		.cfi_startproc
 201              		@ args = 0, pretend = 0, frame = 0
 202              		@ frame_needed = 0, uses_anonymous_args = 0
 203              		@ link register save eliminated.
 204              	.LVL27:
 205 0000 30B4     		push	{r4, r5}
 206              		.cfi_def_cfa_offset 8
 207              		.cfi_offset 4, -8
 208              		.cfi_offset 5, -4
 209              	.LVL28:
 210              	.LBB2:
 102:Helper_functions.c ****     uint16 num = 0;
 103:Helper_functions.c ****     for (int i = 0; i < len; i++){
 211              		.loc 1 103 0
 212 0002 0024     		movs	r4, #0
 213              	.LBE2:
 102:Helper_functions.c ****     uint16 num = 0;
 214              		.loc 1 102 0
 215 0004 2346     		mov	r3, r4
 216              	.LBB3:
 217              		.loc 1 103 0
 218 0006 08E0     		b	.L12
 219              	.LVL29:
 220              	.L13:
 104:Helper_functions.c ****         num = num * 10 + (array[i] - '0'); // to be checked
 221              		.loc 1 104 0 discriminator 3
 222 0008 025D     		ldrb	r2, [r0, r4]	@ zero_extendqisi2
 223 000a 03EB8303 		add	r3, r3, r3, lsl #2
 224              	.LVL30:
 225 000e 5D00     		lsls	r5, r3, #1
 226 0010 AB18     		adds	r3, r5, r2
 227 0012 9BB2     		uxth	r3, r3
 228 0014 303B     		subs	r3, r3, #48
 229 0016 9BB2     		uxth	r3, r3
ARM GAS  C:\Users\teo8d\AppData\Local\Temp\ccuWUaGA.s 			page 7


 230              	.LVL31:
 103:Helper_functions.c ****         num = num * 10 + (array[i] - '0'); // to be checked
 231              		.loc 1 103 0 discriminator 3
 232 0018 0134     		adds	r4, r4, #1
 233              	.LVL32:
 234              	.L12:
 103:Helper_functions.c ****         num = num * 10 + (array[i] - '0'); // to be checked
 235              		.loc 1 103 0 is_stmt 0 discriminator 1
 236 001a 8C42     		cmp	r4, r1
 237 001c F4DB     		blt	.L13
 238              	.LBE3:
 105:Helper_functions.c ****     }
 106:Helper_functions.c ****     return num;
 107:Helper_functions.c **** }
 239              		.loc 1 107 0 is_stmt 1
 240 001e 1846     		mov	r0, r3
 241              	.LVL33:
 242 0020 30BC     		pop	{r4, r5}
 243              		.cfi_restore 5
 244              		.cfi_restore 4
 245              		.cfi_def_cfa_offset 0
 246              	.LVL34:
 247 0022 7047     		bx	lr
 248              		.cfi_endproc
 249              	.LFE67:
 250              		.size	helper_Convert2Dec, .-helper_Convert2Dec
 251              		.section	.text.helper_search_max,"ax",%progbits
 252              		.align	2
 253              		.global	helper_search_max
 254              		.thumb
 255              		.thumb_func
 256              		.type	helper_search_max, %function
 257              	helper_search_max:
 258              	.LFB68:
 108:Helper_functions.c **** 
 109:Helper_functions.c **** 
 110:Helper_functions.c **** /******************************************************************************
 111:Helper_functions.c **** * Function Name: helper_search_max
 112:Helper_functions.c **** *******************************************************************************
 113:Helper_functions.c **** *
 114:Helper_functions.c **** * Summary:
 115:Helper_functions.c **** *   Search for a max current value (after a CV scan) and find the corresponding potential value
 116:Helper_functions.c **** *
 117:Helper_functions.c **** *   To be checked:
 118:Helper_functions.c **** *   Is it enough to search for the maximum in this way?
 119:Helper_functions.c **** *******************************************************************************/
 120:Helper_functions.c **** 
 121:Helper_functions.c **** int16 helper_search_max(int16 current_array[], uint16 dimensione_array){
 259              		.loc 1 121 0
 260              		.cfi_startproc
 261              		@ args = 0, pretend = 0, frame = 0
 262              		@ frame_needed = 0, uses_anonymous_args = 0
 263              		@ link register save eliminated.
 264              	.LVL35:
 265 0000 70B4     		push	{r4, r5, r6}
 266              		.cfi_def_cfa_offset 12
 267              		.cfi_offset 4, -12
ARM GAS  C:\Users\teo8d\AppData\Local\Temp\ccuWUaGA.s 			page 8


 268              		.cfi_offset 5, -8
 269              		.cfi_offset 6, -4
 270              	.LVL36:
 271              	.LBB4:
 122:Helper_functions.c ****     
 123:Helper_functions.c ****     int max_rel=0;
 124:Helper_functions.c ****     int potential_max_current=0;
 125:Helper_functions.c ****     
 126:Helper_functions.c ****     for(int i=1; i< dimensione_array-1; i++){
 272              		.loc 1 126 0
 273 0002 0123     		movs	r3, #1
 274              	.LBE4:
 124:Helper_functions.c ****     
 275              		.loc 1 124 0
 276 0004 0026     		movs	r6, #0
 123:Helper_functions.c ****     int potential_max_current=0;
 277              		.loc 1 123 0
 278 0006 3546     		mov	r5, r6
 279              	.LBB5:
 280              		.loc 1 126 0
 281 0008 14E0     		b	.L16
 282              	.LVL37:
 283              	.L18:
 127:Helper_functions.c ****         
 128:Helper_functions.c ****         if(current_array[i] >= current_array[i-1] && current_array[i]>= current_array[i+1]){
 284              		.loc 1 128 0
 285 000a 30F91340 		ldrsh	r4, [r0, r3, lsl #1]
 286 000e 03F10042 		add	r2, r3, #-2147483648
 287 0012 013A     		subs	r2, r2, #1
 288 0014 30F91220 		ldrsh	r2, [r0, r2, lsl #1]
 289 0018 9442     		cmp	r4, r2
 290 001a 0ADB     		blt	.L17
 291              		.loc 1 128 0 is_stmt 0 discriminator 1
 292 001c 5A1C     		adds	r2, r3, #1
 293 001e 30F91220 		ldrsh	r2, [r0, r2, lsl #1]
 294 0022 9442     		cmp	r4, r2
 295 0024 05DB     		blt	.L17
 129:Helper_functions.c ****             
 130:Helper_functions.c ****             if(current_array[i]>=max_rel){
 296              		.loc 1 130 0 is_stmt 1
 297 0026 A542     		cmp	r5, r4
 298 0028 03DC     		bgt	.L17
 299              	.LVL38:
 131:Helper_functions.c ****                 max_rel=current_array[i];
 132:Helper_functions.c ****                 potential_max_current= waveform_CV_lut[i]; //in theory waveform_CV_lut is global, b
 300              		.loc 1 132 0
 301 002a 054A     		ldr	r2, .L20
 302 002c 32F81360 		ldrh	r6, [r2, r3, lsl #1]
 303              	.LVL39:
 131:Helper_functions.c ****                 max_rel=current_array[i];
 304              		.loc 1 131 0
 305 0030 2546     		mov	r5, r4
 306              	.LVL40:
 307              	.L17:
 126:Helper_functions.c ****         
 308              		.loc 1 126 0 discriminator 2
 309 0032 0133     		adds	r3, r3, #1
ARM GAS  C:\Users\teo8d\AppData\Local\Temp\ccuWUaGA.s 			page 9


 310              	.LVL41:
 311              	.L16:
 126:Helper_functions.c ****         
 312              		.loc 1 126 0 is_stmt 0 discriminator 1
 313 0034 4A1E     		subs	r2, r1, #1
 314 0036 9342     		cmp	r3, r2
 315 0038 E7DB     		blt	.L18
 316              	.LBE5:
 133:Helper_functions.c ****                 
 134:Helper_functions.c ****             }
 135:Helper_functions.c ****             
 136:Helper_functions.c ****         }
 137:Helper_functions.c ****         
 138:Helper_functions.c ****         
 139:Helper_functions.c ****     }
 140:Helper_functions.c ****     
 141:Helper_functions.c ****     return potential_max_current;
 142:Helper_functions.c ****     
 143:Helper_functions.c ****     
 144:Helper_functions.c **** }
 317              		.loc 1 144 0 is_stmt 1
 318 003a 30B2     		sxth	r0, r6
 319              	.LVL42:
 320 003c 70BC     		pop	{r4, r5, r6}
 321              		.cfi_restore 6
 322              		.cfi_restore 5
 323              		.cfi_restore 4
 324              		.cfi_def_cfa_offset 0
 325              	.LVL43:
 326 003e 7047     		bx	lr
 327              	.L21:
 328              		.align	2
 329              	.L20:
 330 0040 00000000 		.word	waveform_CV_lut
 331              		.cfi_endproc
 332              	.LFE68:
 333              		.size	helper_search_max, .-helper_search_max
 334              		.comm	selected_voltage_source,1,1
 335              		.comm	command_lenght,1,1
 336              		.comm	command,40,4
 337              		.comm	potential_max_current,2,2
 338              		.comm	end_dac_value,2,2
 339              		.comm	start_dac_value,2,2
 340              		.comm	uA_per_adc_count,4,4
 341              		.comm	ADC_CV_array,10000,4
 342              		.comm	lut_length,2,2
 343              		.comm	lut_index,2,2
 344              		.comm	waveform_amp_lut,4000,4
 345              		.comm	waveform_CV_lut,10000,4
 346              		.comm	lut_value,2,2
 347              		.comm	dac_ground_value,2,2
 348              		.comm	Update_endvalue_Flag,1,1
 349              		.comm	Update_startvalue_Flag,1,1
 350              		.comm	Update_scanrate_Flag,1,1
 351              		.comm	Load_EEPROM_Flag,1,1
 352              		.comm	AMP_ready_Flag,1,1
 353              		.comm	CV_ready_Flag,1,1
ARM GAS  C:\Users\teo8d\AppData\Local\Temp\ccuWUaGA.s 			page 10


 354              		.comm	TIA_Calibration_ended_Flag,1,1
 355              		.comm	Command_ready_Flag,1,1
 356              		.comm	Input_Flag,1,1
 357              		.text
 358              	.Letext0:
 359              		.file 2 "c:\\program files (x86)\\cypress\\psoc creator\\4.4\\psoc creator\\import\\gnu\\arm\\5.4.
 360              		.file 3 "c:\\program files (x86)\\cypress\\psoc creator\\4.4\\psoc creator\\import\\gnu\\arm\\5.4.
 361              		.file 4 "Generated_Source\\PSoC5/cytypes.h"
 362              		.file 5 "Generated_Source\\PSoC5/core_cm3.h"
 363              		.file 6 "Global_variables.h"
 364              		.file 7 "Helper_functions.h"
 365              		.file 8 "Generated_Source\\PSoC5/ADC_SigDel.h"
 366              		.file 9 "Generated_Source\\PSoC5/TIA.h"
 367              		.file 10 "Generated_Source\\PSoC5/VDAC_TIA.h"
 368              		.file 11 "Generated_Source\\PSoC5/Opamp_Aux.h"
 369              		.file 12 "Generated_Source\\PSoC5/PWM_isr.h"
 370              		.file 13 "DVDAC.h"
 371              		.file 14 "Generated_Source\\PSoC5/CyLib.h"
 372              		.file 15 "Generated_Source\\PSoC5/AMux_TIA_input.h"
 373              		.file 16 "Generated_Source\\PSoC5/AMux_TIA_resistor_bypass.h"