ARM GAS  C:\Users\teo8d\AppData\Local\Temp\cczhw7zP.s 			page 1


   1              		.syntax unified
   2              		.cpu cortex-m3
   3              		.fpu softvfp
   4              		.eabi_attribute 20, 1
   5              		.eabi_attribute 21, 1
   6              		.eabi_attribute 23, 3
   7              		.eabi_attribute 24, 1
   8              		.eabi_attribute 25, 1
   9              		.eabi_attribute 26, 1
  10              		.eabi_attribute 30, 1
  11              		.eabi_attribute 34, 1
  12              		.eabi_attribute 18, 4
  13              		.thumb
  14              		.syntax unified
  15              		.file	"InterruptRoutines.c"
  16              		.text
  17              	.Ltext0:
  18              		.cfi_sections	.debug_frame
  19              		.section	.text.dacInterrupt,"ax",%progbits
  20              		.align	2
  21              		.global	dacInterrupt
  22              		.thumb
  23              		.thumb_func
  24              		.type	dacInterrupt, %function
  25              	dacInterrupt:
  26              	.LFB64:
  27              		.file 1 "InterruptRoutines.c"
   1:InterruptRoutines.c **** /*********************************************************************************
   2:InterruptRoutines.c **** * File Name: InterruptRoutines.c
   3:InterruptRoutines.c **** *
   4:InterruptRoutines.c **** * Description:
   5:InterruptRoutines.c **** * Interrupt service routines definition
   6:InterruptRoutines.c **** *
   7:InterruptRoutines.c **** *********************************************************************************/
   8:InterruptRoutines.c **** 
   9:InterruptRoutines.c **** #include "InterruptRoutines.h"
  10:InterruptRoutines.c **** #include "project.h"
  11:InterruptRoutines.c **** #include "stdio.h"
  12:InterruptRoutines.c **** #include "stdlib.h"
  13:InterruptRoutines.c **** // local files
  14:InterruptRoutines.c **** #include "Calibration.h"
  15:InterruptRoutines.c **** #include "DVDAC.h"
  16:InterruptRoutines.c **** #include "Global_variables.h"
  17:InterruptRoutines.c **** #include "Helper_functions.h"
  18:InterruptRoutines.c **** 
  19:InterruptRoutines.c **** char UART_str[64];
  20:InterruptRoutines.c **** 
  21:InterruptRoutines.c **** 
  22:InterruptRoutines.c **** uint8 AMux_channel_select = 0;  // Let the user choose to use the two electrode configuration (set 
  23:InterruptRoutines.c **** // electrode configuration (set to 1) by choosing the correct AMux channel
  24:InterruptRoutines.c **** 
  25:InterruptRoutines.c **** uint8 adc_recording_channel = 0;  //  A COSA SERVE???
  26:InterruptRoutines.c **** 
  27:InterruptRoutines.c **** 
  28:InterruptRoutines.c **** uint8 adc_hold;  // value to hold what adc buffer was just filled  --> SERVE ???
  29:InterruptRoutines.c **** 
  30:InterruptRoutines.c **** 
ARM GAS  C:\Users\teo8d\AppData\Local\Temp\cczhw7zP.s 			page 2


  31:InterruptRoutines.c **** int16 uA_CV_scan[MAX_CV_LUT_SIZE];
  32:InterruptRoutines.c **** int16 uA_amp[MAX_amp_LUT_SIZE];
  33:InterruptRoutines.c **** float32 R_analog_route = 0;
  34:InterruptRoutines.c **** 
  35:InterruptRoutines.c **** int16 potential_max_current=0;
  36:InterruptRoutines.c **** 
  37:InterruptRoutines.c **** 
  38:InterruptRoutines.c **** // ISR used to run a CV scan 
  39:InterruptRoutines.c **** CY_ISR(dacInterrupt)
  40:InterruptRoutines.c **** {
  28              		.loc 1 40 0
  29              		.cfi_startproc
  30              		@ args = 0, pretend = 0, frame = 0
  31              		@ frame_needed = 0, uses_anonymous_args = 0
  32 0000 08B5     		push	{r3, lr}
  33              		.cfi_def_cfa_offset 8
  34              		.cfi_offset 3, -8
  35              		.cfi_offset 14, -4
  41:InterruptRoutines.c ****     
  42:InterruptRoutines.c ****     DVDAC_SetValue(lut_value); // this function sets the DVDAC value 
  36              		.loc 1 42 0
  37 0002 144B     		ldr	r3, .L4
  38 0004 1888     		ldrh	r0, [r3]
  39 0006 FFF7FEFF 		bl	DVDAC_SetValue
  40              	.LVL0:
  43:InterruptRoutines.c ****     lut_index++; //incremented in order to scan the look up table
  41              		.loc 1 43 0
  42 000a 134A     		ldr	r2, .L4+4
  43 000c 1388     		ldrh	r3, [r2]
  44 000e 0133     		adds	r3, r3, #1
  45 0010 9BB2     		uxth	r3, r3
  46 0012 1380     		strh	r3, [r2]	@ movhi
  44:InterruptRoutines.c ****     if (lut_index >= lut_length) { // all the data points have been given
  47              		.loc 1 44 0
  48 0014 114A     		ldr	r2, .L4+8
  49 0016 1288     		ldrh	r2, [r2]
  50 0018 9342     		cmp	r3, r2
  51 001a 12D3     		bcc	.L2
  45:InterruptRoutines.c ****         isr_adc_Disable();
  52              		.loc 1 45 0
  53 001c FFF7FEFF 		bl	isr_adc_Disable
  54              	.LVL1:
  46:InterruptRoutines.c ****         isr_dac_Disable();
  55              		.loc 1 46 0
  56 0020 FFF7FEFF 		bl	isr_dac_Disable
  57              	.LVL2:
  47:InterruptRoutines.c **** 
  48:InterruptRoutines.c ****         helper_HardwareSleep();
  58              		.loc 1 48 0
  59 0024 FFF7FEFF 		bl	helper_HardwareSleep
  60              	.LVL3:
  49:InterruptRoutines.c ****         lut_index = 0; 
  61              		.loc 1 49 0
  62 0028 0022     		movs	r2, #0
  63 002a 0B4B     		ldr	r3, .L4+4
  64 002c 1A80     		strh	r2, [r3]	@ movhi
  50:InterruptRoutines.c ****         
ARM GAS  C:\Users\teo8d\AppData\Local\Temp\cczhw7zP.s 			page 3


  51:InterruptRoutines.c ****         potential_max_current= helper_search_max(uA_CV_scan, lut_length); //we look at what has bee
  65              		.loc 1 51 0
  66 002e 0B4B     		ldr	r3, .L4+8
  67 0030 1988     		ldrh	r1, [r3]
  68 0032 0B48     		ldr	r0, .L4+12
  69 0034 FFF7FEFF 		bl	helper_search_max
  70              	.LVL4:
  71 0038 0A4B     		ldr	r3, .L4+16
  72 003a 1880     		strh	r0, [r3]	@ movhi
  52:InterruptRoutines.c ****         
  53:InterruptRoutines.c ****         AMP_ready_Flag=true; //CV has ended and we have calculated a potential value to be applied 
  73              		.loc 1 53 0
  74 003c 0122     		movs	r2, #1
  75 003e 0A4B     		ldr	r3, .L4+20
  76 0040 1A70     		strb	r2, [r3]
  77              	.L2:
  54:InterruptRoutines.c ****     }
  55:InterruptRoutines.c ****     
  56:InterruptRoutines.c ****     lut_value = waveform_CV_lut[lut_index]; // take value from the CV look up table 
  78              		.loc 1 56 0
  79 0042 054B     		ldr	r3, .L4+4
  80 0044 1A88     		ldrh	r2, [r3]
  81 0046 094B     		ldr	r3, .L4+24
  82 0048 33F81220 		ldrh	r2, [r3, r2, lsl #1]
  83 004c 014B     		ldr	r3, .L4
  84 004e 1A80     		strh	r2, [r3]	@ movhi
  85 0050 08BD     		pop	{r3, pc}
  86              	.L5:
  87 0052 00BF     		.align	2
  88              	.L4:
  89 0054 00000000 		.word	lut_value
  90 0058 00000000 		.word	lut_index
  91 005c 00000000 		.word	lut_length
  92 0060 00000000 		.word	uA_CV_scan
  93 0064 00000000 		.word	.LANCHOR0
  94 0068 00000000 		.word	AMP_ready_Flag
  95 006c 00000000 		.word	waveform_CV_lut
  96              		.cfi_endproc
  97              	.LFE64:
  98              		.size	dacInterrupt, .-dacInterrupt
  99              		.global	__aeabi_i2f
 100              		.global	__aeabi_fmul
 101              		.global	__aeabi_f2iz
 102              		.section	.text.adcInterrupt,"ax",%progbits
 103              		.align	2
 104              		.global	adcInterrupt
 105              		.thumb
 106              		.thumb_func
 107              		.type	adcInterrupt, %function
 108              	adcInterrupt:
 109              	.LFB65:
  57:InterruptRoutines.c **** }
  58:InterruptRoutines.c **** 
  59:InterruptRoutines.c **** 
  60:InterruptRoutines.c **** // ISR used to verify the error between the potential of the working electrode and the VIRTUAL GROU
  61:InterruptRoutines.c **** CY_ISR(adcInterrupt){
 110              		.loc 1 61 0
ARM GAS  C:\Users\teo8d\AppData\Local\Temp\cczhw7zP.s 			page 4


 111              		.cfi_startproc
 112              		@ args = 0, pretend = 0, frame = 0
 113              		@ frame_needed = 0, uses_anonymous_args = 0
 114 0000 38B5     		push	{r3, r4, r5, lr}
 115              		.cfi_def_cfa_offset 16
 116              		.cfi_offset 3, -16
 117              		.cfi_offset 4, -12
 118              		.cfi_offset 5, -8
 119              		.cfi_offset 14, -4
  62:InterruptRoutines.c ****     
  63:InterruptRoutines.c **** 
  64:InterruptRoutines.c ****     ADC_CV_array[lut_index] = ADC_SigDel_GetResult16(); 
 120              		.loc 1 64 0
 121 0002 0B4C     		ldr	r4, .L8
 122 0004 2588     		ldrh	r5, [r4]
 123 0006 FFF7FEFF 		bl	ADC_SigDel_GetResult16
 124              	.LVL5:
 125 000a 0A4B     		ldr	r3, .L8+4
 126 000c 23F81500 		strh	r0, [r3, r5, lsl #1]	@ movhi
  65:InterruptRoutines.c **** 
  66:InterruptRoutines.c ****     uA_CV_scan[lut_index] = - ADC_CV_array[lut_index] * uA_per_adc_count; // uA read while performi
 127              		.loc 1 66 0
 128 0010 2488     		ldrh	r4, [r4]
 129 0012 33F81400 		ldrh	r0, [r3, r4, lsl #1]
 130 0016 4042     		negs	r0, r0
 131 0018 FFF7FEFF 		bl	__aeabi_i2f
 132              	.LVL6:
 133 001c 064B     		ldr	r3, .L8+8
 134 001e 1968     		ldr	r1, [r3]	@ float
 135 0020 FFF7FEFF 		bl	__aeabi_fmul
 136              	.LVL7:
 137 0024 FFF7FEFF 		bl	__aeabi_f2iz
 138              	.LVL8:
 139 0028 044B     		ldr	r3, .L8+12
 140 002a 23F81400 		strh	r0, [r3, r4, lsl #1]	@ movhi
 141 002e 38BD     		pop	{r3, r4, r5, pc}
 142              	.L9:
 143              		.align	2
 144              	.L8:
 145 0030 00000000 		.word	lut_index
 146 0034 00000000 		.word	ADC_CV_array
 147 0038 00000000 		.word	uA_per_adc_count
 148 003c 00000000 		.word	uA_CV_scan
 149              		.cfi_endproc
 150              	.LFE65:
 151              		.size	adcInterrupt, .-adcInterrupt
 152              		.section	.text.adcAmpInterrupt,"ax",%progbits
 153              		.align	2
 154              		.global	adcAmpInterrupt
 155              		.thumb
 156              		.thumb_func
 157              		.type	adcAmpInterrupt, %function
 158              	adcAmpInterrupt:
 159              	.LFB66:
  67:InterruptRoutines.c ****     
  68:InterruptRoutines.c ****     //send out values with the UART for the CV graph --> TO BE ADDED
  69:InterruptRoutines.c **** }
ARM GAS  C:\Users\teo8d\AppData\Local\Temp\cczhw7zP.s 			page 5


  70:InterruptRoutines.c **** 
  71:InterruptRoutines.c **** 
  72:InterruptRoutines.c **** // ISR used to get the data from the ADC in case of amperometry measurement
  73:InterruptRoutines.c **** CY_ISR(adcAmpInterrupt){
 160              		.loc 1 73 0
 161              		.cfi_startproc
 162              		@ args = 0, pretend = 0, frame = 0
 163              		@ frame_needed = 0, uses_anonymous_args = 0
 164 0000 38B5     		push	{r3, r4, r5, lr}
 165              		.cfi_def_cfa_offset 16
 166              		.cfi_offset 3, -16
 167              		.cfi_offset 4, -12
 168              		.cfi_offset 5, -8
 169              		.cfi_offset 14, -4
  74:InterruptRoutines.c ****     
  75:InterruptRoutines.c ****     DVDAC_SetValue(lut_value); // this function sets the DVDAC value 
 170              		.loc 1 75 0
 171 0002 144B     		ldr	r3, .L13
 172 0004 1888     		ldrh	r0, [r3]
 173 0006 FFF7FEFF 		bl	DVDAC_SetValue
 174              	.LVL9:
  76:InterruptRoutines.c ****     uA_amp[lut_index] = ADC_SigDel_GetResult16() * uA_per_adc_count; //Read the current 
 175              		.loc 1 76 0
 176 000a 134C     		ldr	r4, .L13+4
 177 000c 2588     		ldrh	r5, [r4]
 178 000e FFF7FEFF 		bl	ADC_SigDel_GetResult16
 179              	.LVL10:
 180 0012 FFF7FEFF 		bl	__aeabi_i2f
 181              	.LVL11:
 182 0016 114B     		ldr	r3, .L13+8
 183 0018 1968     		ldr	r1, [r3]	@ float
 184 001a FFF7FEFF 		bl	__aeabi_fmul
 185              	.LVL12:
 186 001e FFF7FEFF 		bl	__aeabi_f2iz
 187              	.LVL13:
 188 0022 0F4B     		ldr	r3, .L13+12
 189 0024 23F81500 		strh	r0, [r3, r5, lsl #1]	@ movhi
  77:InterruptRoutines.c ****     
  78:InterruptRoutines.c ****     //send out values with the UART for the AMP graph --> TO BE ADDED
  79:InterruptRoutines.c ****     
  80:InterruptRoutines.c ****     lut_index++;  
 190              		.loc 1 80 0
 191 0028 2388     		ldrh	r3, [r4]
 192 002a 0133     		adds	r3, r3, #1
 193 002c 9BB2     		uxth	r3, r3
 194 002e 2380     		strh	r3, [r4]	@ movhi
  81:InterruptRoutines.c ****     if (lut_index >= MAX_amp_LUT_SIZE) { // all the data points have been given
 195              		.loc 1 81 0
 196 0030 B3F5FA6F 		cmp	r3, #2000
 197 0034 05D3     		bcc	.L11
  82:InterruptRoutines.c ****         isr_adcAmp_Disable();
 198              		.loc 1 82 0
 199 0036 FFF7FEFF 		bl	isr_adcAmp_Disable
 200              	.LVL14:
  83:InterruptRoutines.c **** 
  84:InterruptRoutines.c ****         helper_HardwareSleep();
 201              		.loc 1 84 0
ARM GAS  C:\Users\teo8d\AppData\Local\Temp\cczhw7zP.s 			page 6


 202 003a FFF7FEFF 		bl	helper_HardwareSleep
 203              	.LVL15:
  85:InterruptRoutines.c ****         lut_index = 0;
 204              		.loc 1 85 0
 205 003e 0022     		movs	r2, #0
 206 0040 2280     		strh	r2, [r4]	@ movhi
 207              	.L11:
  86:InterruptRoutines.c ****         
  87:InterruptRoutines.c ****         // Set a flag to indicate that the amperometry has ended
  88:InterruptRoutines.c ****         // Call a function to convert (based on a calibration curve) the current at a certain time 
  89:InterruptRoutines.c ****        
  90:InterruptRoutines.c ****     }
  91:InterruptRoutines.c ****     lut_value = waveform_amp_lut[lut_index]; // take value from the AMP look up table
 208              		.loc 1 91 0
 209 0042 054B     		ldr	r3, .L13+4
 210 0044 1A88     		ldrh	r2, [r3]
 211 0046 074B     		ldr	r3, .L13+16
 212 0048 33F81220 		ldrh	r2, [r3, r2, lsl #1]
 213 004c 014B     		ldr	r3, .L13
 214 004e 1A80     		strh	r2, [r3]	@ movhi
 215 0050 38BD     		pop	{r3, r4, r5, pc}
 216              	.L14:
 217 0052 00BF     		.align	2
 218              	.L13:
 219 0054 00000000 		.word	lut_value
 220 0058 00000000 		.word	lut_index
 221 005c 00000000 		.word	uA_per_adc_count
 222 0060 00000000 		.word	uA_amp
 223 0064 00000000 		.word	waveform_amp_lut
 224              		.cfi_endproc
 225              	.LFE66:
 226              		.size	adcAmpInterrupt, .-adcAmpInterrupt
 227              		.global	R_analog_route
 228              		.comm	uA_amp,4000,4
 229              		.comm	uA_CV_scan,10000,4
 230              		.comm	adc_hold,1,1
 231              		.global	adc_recording_channel
 232              		.global	AMux_channel_select
 233              		.comm	UART_str,64,4
 234              		.comm	selected_voltage_source,1,1
 235              		.comm	command_lenght,1,1
 236              		.comm	command,40,4
 237              		.comm	selected_scan_rate,2,2
 238              		.global	potential_max_current
 239              		.comm	end_dac_value,2,2
 240              		.comm	start_dac_value,2,2
 241              		.comm	uA_per_adc_count,4,4
 242              		.comm	ADC_CV_array,10000,4
 243              		.comm	lut_length,2,2
 244              		.comm	lut_index,2,2
 245              		.comm	waveform_amp_lut,4000,4
 246              		.comm	waveform_CV_lut,10000,4
 247              		.comm	lut_value,2,2
 248              		.comm	dac_ground_value,2,2
 249              		.comm	Update_timevalue_Flag,1,1
 250              		.comm	Update_endvalue_Flag,1,1
 251              		.comm	Update_startvalue_Flag,1,1
ARM GAS  C:\Users\teo8d\AppData\Local\Temp\cczhw7zP.s 			page 7


 252              		.comm	Update_scanrate_Flag,1,1
 253              		.comm	Load_EEPROM_Flag,1,1
 254              		.comm	AMP_ready_Flag,1,1
 255              		.comm	CV_ready_Flag,1,1
 256              		.comm	TIA_Calibration_ended_Flag,1,1
 257              		.comm	Command_ready_Flag,1,1
 258              		.comm	Input_Flag,1,1
 259              		.comm	ADC_buffer_index,1,1
 260              		.comm	TIA_resistor_value_index,1,1
 261              		.comm	CalibrationBuffer,20,4
 262              		.bss
 263              		.align	2
 264              		.set	.LANCHOR0,. + 0
 265              		.type	potential_max_current, %object
 266              		.size	potential_max_current, 2
 267              	potential_max_current:
 268 0000 0000     		.space	2
 269 0002 0000     		.space	2
 270              		.type	R_analog_route, %object
 271              		.size	R_analog_route, 4
 272              	R_analog_route:
 273 0004 00000000 		.space	4
 274              		.type	adc_recording_channel, %object
 275              		.size	adc_recording_channel, 1
 276              	adc_recording_channel:
 277 0008 00       		.space	1
 278              		.type	AMux_channel_select, %object
 279              		.size	AMux_channel_select, 1
 280              	AMux_channel_select:
 281 0009 00       		.space	1
 282              		.text
 283              	.Letext0:
 284              		.file 2 "c:\\program files (x86)\\cypress\\psoc creator\\4.4\\psoc creator\\import\\gnu\\arm\\5.4.
 285              		.file 3 "c:\\program files (x86)\\cypress\\psoc creator\\4.4\\psoc creator\\import\\gnu\\arm\\5.4.
 286              		.file 4 "Generated_Source\\PSoC5/cytypes.h"
 287              		.file 5 "Generated_Source\\PSoC5/core_cm3.h"
 288              		.file 6 "Calibration.h"
 289              		.file 7 "Global_variables.h"
 290              		.file 8 "DVDAC.h"
 291              		.file 9 "Generated_Source\\PSoC5/isr_adc.h"
 292              		.file 10 "Generated_Source\\PSoC5/isr_dac.h"
 293              		.file 11 "Helper_functions.h"
 294              		.file 12 "Generated_Source\\PSoC5/ADC_SigDel.h"
 295              		.file 13 "Generated_Source\\PSoC5/isr_adcAmp.h"