ARM GAS  C:\Users\teo8d\AppData\Local\Temp\ccyob2jq.s 			page 1


   1              		.syntax unified
   2              		.cpu cortex-m3
   3              		.fpu softvfp
   4              		.eabi_attribute 20, 1
   5              		.eabi_attribute 21, 1
   6              		.eabi_attribute 23, 3
   7              		.eabi_attribute 24, 1
   8              		.eabi_attribute 25, 1
   9              		.eabi_attribute 26, 1
  10              		.eabi_attribute 30, 1
  11              		.eabi_attribute 34, 1
  12              		.eabi_attribute 18, 4
  13              		.thumb
  14              		.syntax unified
  15              		.file	"lut_functions.c"
  16              		.text
  17              	.Ltext0:
  18              		.cfi_sections	.debug_frame
  19              		.section	.text.LUT_make_line,"ax",%progbits
  20              		.align	2
  21              		.global	LUT_make_line
  22              		.thumb
  23              		.thumb_func
  24              		.type	LUT_make_line, %function
  25              	LUT_make_line:
  26              	.LFB65:
  27              		.file 1 "lut_functions.c"
   1:lut_functions.c **** /*******************************************************************************
   2:lut_functions.c **** * File Name: lut_functions.c
   3:lut_functions.c **** *
   4:lut_functions.c **** * Description:
   5:lut_functions.c **** *  This file contains the protocols to create look up tables
   6:lut_functions.c **** *
   7:lut_functions.c **** *********************************************************************************/
   8:lut_functions.c **** 
   9:lut_functions.c **** #include "lut_functions.h"
  10:lut_functions.c **** #include "Global_variables.h"
  11:lut_functions.c **** extern char LCD_str[];  // for debug
  12:lut_functions.c **** 
  13:lut_functions.c **** /******************************************************************************
  14:lut_functions.c **** * Function Name: LUT_MakeTriangleWave
  15:lut_functions.c **** *******************************************************************************
  16:lut_functions.c **** *
  17:lut_functions.c **** * Summary:
  18:lut_functions.c **** *  Fill in the look up table (waveform_CV_lut) for the DACs to perform a cyclic voltammetry experim
  19:lut_functions.c **** *
  20:lut_functions.c **** * Parameters:
  21:lut_functions.c **** *  uint16 start_value: first value to put in the dac
  22:lut_functions.c **** *  uint16 end_value: to peak dac value
  23:lut_functions.c **** *
  24:lut_functions.c **** * Return:
  25:lut_functions.c **** *  uint16: how long the look up table is
  26:lut_functions.c **** *
  27:lut_functions.c **** * Global variables:
  28:lut_functions.c **** *  waveform_CV_lut: Array the look up table is stored in
  29:lut_functions.c **** *
  30:lut_functions.c **** *******************************************************************************/
ARM GAS  C:\Users\teo8d\AppData\Local\Temp\ccyob2jq.s 			page 2


  31:lut_functions.c **** 
  32:lut_functions.c **** uint16 LUT_MakeTriangle_Wave(uint16 start_value, uint16 end_value) {
  33:lut_functions.c ****     uint16 _lut_index = 0;  // start at the beginning of the lut
  34:lut_functions.c ****     
  35:lut_functions.c ****     
  36:lut_functions.c ****     _lut_index = LUT_make_line(start_value, end_value, 0);
  37:lut_functions.c ****     
  38:lut_functions.c ****     _lut_index = LUT_make_line(end_value, start_value, _lut_index-1);
  39:lut_functions.c ****     waveform_CV_lut[_lut_index] = start_value;  // the DAC is changed before the value is checked i
  40:lut_functions.c ****     _lut_index++;
  41:lut_functions.c **** 
  42:lut_functions.c ****     
  43:lut_functions.c ****     return _lut_index;  
  44:lut_functions.c **** }
  45:lut_functions.c **** 
  46:lut_functions.c **** 
  47:lut_functions.c **** 
  48:lut_functions.c **** /******************************************************************************
  49:lut_functions.c **** * Function Name: LUT_make_line
  50:lut_functions.c **** *******************************************************************************
  51:lut_functions.c **** *
  52:lut_functions.c **** * Summary:
  53:lut_functions.c **** *  Make a ramp from start to end in waveform_CV_lut starting at index
  54:lut_functions.c **** *
  55:lut_functions.c **** * Parameters:
  56:lut_functions.c **** *  uint16 start: first value to put in the look up table
  57:lut_functions.c **** *  uint16 end: end value to put in the look up table
  58:lut_functions.c **** *  uint16 index: the place to start putting in numbers in the look up table
  59:lut_functions.c **** *
  60:lut_functions.c **** * Return:
  61:lut_functions.c **** *  uint16: first place after the filled in area of the look up table
  62:lut_functions.c **** *
  63:lut_functions.c **** * Global variables:
  64:lut_functions.c **** *  waveform_CV_lut: Array the look up table is stored in
  65:lut_functions.c **** *
  66:lut_functions.c **** *******************************************************************************/
  67:lut_functions.c **** 
  68:lut_functions.c **** uint16 LUT_make_line(uint16 start, uint16 end, uint16 index) {
  28              		.loc 1 68 0
  29              		.cfi_startproc
  30              		@ args = 0, pretend = 0, frame = 0
  31              		@ frame_needed = 0, uses_anonymous_args = 0
  32              		@ link register save eliminated.
  33              	.LVL0:
  34 0000 0346     		mov	r3, r0
  69:lut_functions.c ****     if (start < end) {
  35              		.loc 1 69 0
  36 0002 8842     		cmp	r0, r1
  37 0004 07D3     		bcc	.L2
  38 0006 10E0     		b	.L3
  39              	.LVL1:
  40              	.L4:
  41              	.LBB2:
  70:lut_functions.c ****         for (uint16 value = start; value <= end; value++) {  //increasing part of the triangular wa
  71:lut_functions.c ****             waveform_CV_lut[index] = value;
  42              		.loc 1 71 0 discriminator 3
  43 0008 0A48     		ldr	r0, .L7
ARM GAS  C:\Users\teo8d\AppData\Local\Temp\ccyob2jq.s 			page 3


  44 000a 20F81230 		strh	r3, [r0, r2, lsl #1]	@ movhi
  72:lut_functions.c ****             index ++;
  45              		.loc 1 72 0 discriminator 3
  46 000e 0132     		adds	r2, r2, #1
  47              	.LVL2:
  48 0010 92B2     		uxth	r2, r2
  49              	.LVL3:
  70:lut_functions.c ****         for (uint16 value = start; value <= end; value++) {  //increasing part of the triangular wa
  50              		.loc 1 70 0 discriminator 3
  51 0012 0133     		adds	r3, r3, #1
  52              	.LVL4:
  53 0014 9BB2     		uxth	r3, r3
  54              	.LVL5:
  55              	.L2:
  70:lut_functions.c ****         for (uint16 value = start; value <= end; value++) {  //increasing part of the triangular wa
  56              		.loc 1 70 0 is_stmt 0 discriminator 1
  57 0016 8B42     		cmp	r3, r1
  58 0018 F6D9     		bls	.L4
  59 001a 08E0     		b	.L5
  60              	.LVL6:
  61              	.L6:
  62              	.LBE2:
  63              	.LBB3:
  73:lut_functions.c ****         }
  74:lut_functions.c ****     }
  75:lut_functions.c ****     else {
  76:lut_functions.c ****         for (uint16 value = start; value >= end; value--) { //decreasing part of the triangular wav
  77:lut_functions.c ****             waveform_CV_lut[index] = value;
  64              		.loc 1 77 0 is_stmt 1 discriminator 3
  65 001c 0548     		ldr	r0, .L7
  66 001e 20F81230 		strh	r3, [r0, r2, lsl #1]	@ movhi
  78:lut_functions.c ****             index ++;
  67              		.loc 1 78 0 discriminator 3
  68 0022 0132     		adds	r2, r2, #1
  69              	.LVL7:
  70 0024 92B2     		uxth	r2, r2
  71              	.LVL8:
  76:lut_functions.c ****             waveform_CV_lut[index] = value;
  72              		.loc 1 76 0 discriminator 3
  73 0026 013B     		subs	r3, r3, #1
  74              	.LVL9:
  75 0028 9BB2     		uxth	r3, r3
  76              	.LVL10:
  77              	.L3:
  76:lut_functions.c ****             waveform_CV_lut[index] = value;
  78              		.loc 1 76 0 is_stmt 0 discriminator 1
  79 002a 8B42     		cmp	r3, r1
  80 002c F6D2     		bcs	.L6
  81              	.LVL11:
  82              	.L5:
  83              	.LBE3:
  79:lut_functions.c ****         }
  80:lut_functions.c ****     }
  81:lut_functions.c ****     return index;
  82:lut_functions.c **** }
  84              		.loc 1 82 0 is_stmt 1
  85 002e 1046     		mov	r0, r2
ARM GAS  C:\Users\teo8d\AppData\Local\Temp\ccyob2jq.s 			page 4


  86 0030 7047     		bx	lr
  87              	.L8:
  88 0032 00BF     		.align	2
  89              	.L7:
  90 0034 00000000 		.word	waveform_CV_lut
  91              		.cfi_endproc
  92              	.LFE65:
  93              		.size	LUT_make_line, .-LUT_make_line
  94              		.section	.text.LUT_MakeTriangle_Wave,"ax",%progbits
  95              		.align	2
  96              		.global	LUT_MakeTriangle_Wave
  97              		.thumb
  98              		.thumb_func
  99              		.type	LUT_MakeTriangle_Wave, %function
 100              	LUT_MakeTriangle_Wave:
 101              	.LFB64:
  32:lut_functions.c ****     uint16 _lut_index = 0;  // start at the beginning of the lut
 102              		.loc 1 32 0
 103              		.cfi_startproc
 104              		@ args = 0, pretend = 0, frame = 0
 105              		@ frame_needed = 0, uses_anonymous_args = 0
 106              	.LVL12:
 107 0000 38B5     		push	{r3, r4, r5, lr}
 108              		.cfi_def_cfa_offset 16
 109              		.cfi_offset 3, -16
 110              		.cfi_offset 4, -12
 111              		.cfi_offset 5, -8
 112              		.cfi_offset 14, -4
 113 0002 0446     		mov	r4, r0
 114 0004 0D46     		mov	r5, r1
 115              	.LVL13:
  36:lut_functions.c ****     
 116              		.loc 1 36 0
 117 0006 0022     		movs	r2, #0
 118 0008 FFF7FEFF 		bl	LUT_make_line
 119              	.LVL14:
  38:lut_functions.c ****     waveform_CV_lut[_lut_index] = start_value;  // the DAC is changed before the value is checked i
 120              		.loc 1 38 0
 121 000c 421E     		subs	r2, r0, #1
 122 000e 92B2     		uxth	r2, r2
 123 0010 2146     		mov	r1, r4
 124 0012 2846     		mov	r0, r5
 125              	.LVL15:
 126 0014 FFF7FEFF 		bl	LUT_make_line
 127              	.LVL16:
  39:lut_functions.c ****     _lut_index++;
 128              		.loc 1 39 0
 129 0018 024B     		ldr	r3, .L11
 130 001a 23F81040 		strh	r4, [r3, r0, lsl #1]	@ movhi
  40:lut_functions.c **** 
 131              		.loc 1 40 0
 132 001e 0130     		adds	r0, r0, #1
 133              	.LVL17:
  44:lut_functions.c **** 
 134              		.loc 1 44 0
 135 0020 80B2     		uxth	r0, r0
 136 0022 38BD     		pop	{r3, r4, r5, pc}
ARM GAS  C:\Users\teo8d\AppData\Local\Temp\ccyob2jq.s 			page 5


 137              	.L12:
 138              		.align	2
 139              	.L11:
 140 0024 00000000 		.word	waveform_CV_lut
 141              		.cfi_endproc
 142              	.LFE64:
 143              		.size	LUT_MakeTriangle_Wave, .-LUT_MakeTriangle_Wave
 144              		.section	.text.LUT_MakePulse,"ax",%progbits
 145              		.align	2
 146              		.global	LUT_MakePulse
 147              		.thumb
 148              		.thumb_func
 149              		.type	LUT_MakePulse, %function
 150              	LUT_MakePulse:
 151              	.LFB66:
  83:lut_functions.c **** 
  84:lut_functions.c **** /******************************************************************************
  85:lut_functions.c **** * Function Name: LUT_MakePulse
  86:lut_functions.c **** *******************************************************************************
  87:lut_functions.c **** *
  88:lut_functions.c **** * Summary:
  89:lut_functions.c **** *  Make a look up table that stores a square pulse sequence
  90:lut_functions.c **** *  Quick hack for chronoamperomerty
  91:lut_functions.c **** *  TODO: THIS SHOULD BE REPLACED
  92:lut_functions.c **** *
  93:lut_functions.c **** * Parameters:
  94:lut_functions.c **** *  uint16 base: value to be placed in the DAC to maintain the baseline potential
  95:lut_functions.c **** *  uint16 pulse: value to put in the DAC for the voltage pulse
  96:lut_functions.c **** *
  97:lut_functions.c **** * Global variables:
  98:lut_functions.c **** *  waveform_amp_lut: Array the look up table is stored in
  99:lut_functions.c **** *
 100:lut_functions.c **** *******************************************************************************/
 101:lut_functions.c **** 
 102:lut_functions.c **** void LUT_MakePulse(uint16 base, uint16 pulse) {
 152              		.loc 1 102 0
 153              		.cfi_startproc
 154              		@ args = 0, pretend = 0, frame = 0
 155              		@ frame_needed = 0, uses_anonymous_args = 0
 156              		@ link register save eliminated.
 157              	.LVL18:
 103:lut_functions.c ****     int _lut_index = 0;
 158              		.loc 1 103 0
 159 0000 0023     		movs	r3, #0
 104:lut_functions.c ****     while (_lut_index < 100) {  //set the base value for the first 100 values (@10 ms (i.e. 100Hz),
 160              		.loc 1 104 0
 161 0002 03E0     		b	.L14
 162              	.LVL19:
 163              	.L15:
 105:lut_functions.c ****         waveform_amp_lut[_lut_index] = base;
 164              		.loc 1 105 0
 165 0004 074A     		ldr	r2, .L18
 166 0006 22F81300 		strh	r0, [r2, r3, lsl #1]	@ movhi
 106:lut_functions.c ****         _lut_index++;
 167              		.loc 1 106 0
 168 000a 0133     		adds	r3, r3, #1
 169              	.LVL20:
ARM GAS  C:\Users\teo8d\AppData\Local\Temp\ccyob2jq.s 			page 6


 170              	.L14:
 104:lut_functions.c ****     while (_lut_index < 100) {  //set the base value for the first 100 values (@10 ms (i.e. 100Hz),
 171              		.loc 1 104 0
 172 000c 632B     		cmp	r3, #99
 173 000e F9DD     		ble	.L15
 174 0010 03E0     		b	.L16
 175              	.L17:
 107:lut_functions.c ****     }
 108:lut_functions.c ****     while (_lut_index < 2000) { //set the pulse value for the following 1900 values (@10 ms (i.e. 1
 109:lut_functions.c ****         waveform_amp_lut[_lut_index] = pulse;
 176              		.loc 1 109 0
 177 0012 044A     		ldr	r2, .L18
 178 0014 22F81310 		strh	r1, [r2, r3, lsl #1]	@ movhi
 110:lut_functions.c ****         _lut_index++;
 179              		.loc 1 110 0
 180 0018 0133     		adds	r3, r3, #1
 181              	.LVL21:
 182              	.L16:
 108:lut_functions.c ****         waveform_amp_lut[_lut_index] = pulse;
 183              		.loc 1 108 0
 184 001a B3F5FA6F 		cmp	r3, #2000
 185 001e F8DB     		blt	.L17
 111:lut_functions.c ****     }
 112:lut_functions.c **** 
 113:lut_functions.c **** }
 186              		.loc 1 113 0
 187 0020 7047     		bx	lr
 188              	.L19:
 189 0022 00BF     		.align	2
 190              	.L18:
 191 0024 00000000 		.word	waveform_amp_lut
 192              		.cfi_endproc
 193              	.LFE66:
 194              		.size	LUT_MakePulse, .-LUT_MakePulse
 195              		.comm	command_lenght,1,1
 196              		.comm	command,40,4
 197              		.comm	selected_scan_rate,2,2
 198              		.comm	potential_max_current,2,2
 199              		.comm	end_dac_value,2,2
 200              		.comm	start_dac_value,2,2
 201              		.comm	uA_per_adc_count,4,4
 202              		.comm	ADC_CV_array,10000,4
 203              		.comm	lut_length,2,2
 204              		.comm	lut_index,2,2
 205              		.comm	waveform_amp_lut,4000,4
 206              		.comm	waveform_CV_lut,10000,4
 207              		.comm	lut_value,2,2
 208              		.comm	dac_ground_value,2,2
 209              		.comm	Update_timevalue_Flag,1,1
 210              		.comm	Update_endvalue_Flag,1,1
 211              		.comm	Update_startvalue_Flag,1,1
 212              		.comm	Update_scanrate_Flag,1,1
 213              		.comm	Load_EEPROM_Flag,1,1
 214              		.comm	AMP_ready_Flag,1,1
 215              		.comm	CV_ready_Flag,1,1
 216              		.comm	TIA_Calibration_ended_Flag,1,1
 217              		.comm	Command_ready_Flag,1,1
ARM GAS  C:\Users\teo8d\AppData\Local\Temp\ccyob2jq.s 			page 7


 218              		.comm	Input_Flag,1,1
 219              		.text
 220              	.Letext0:
 221              		.file 2 "c:\\program files (x86)\\cypress\\psoc creator\\4.4\\psoc creator\\import\\gnu\\arm\\5.4.
 222              		.file 3 "c:\\program files (x86)\\cypress\\psoc creator\\4.4\\psoc creator\\import\\gnu\\arm\\5.4.
 223              		.file 4 "Generated_Source\\PSoC5/cytypes.h"
 224              		.file 5 "Generated_Source\\PSoC5/core_cm3.h"
 225              		.file 6 "Global_variables.h"