ARM GAS  C:\Users\teo8d\AppData\Local\Temp\ccbjIYRt.s 			page 1


   1              		.syntax unified
   2              		.cpu cortex-m3
   3              		.fpu softvfp
   4              		.eabi_attribute 20, 1
   5              		.eabi_attribute 21, 1
   6              		.eabi_attribute 23, 3
   7              		.eabi_attribute 24, 1
   8              		.eabi_attribute 25, 1
   9              		.eabi_attribute 26, 1
  10              		.eabi_attribute 30, 1
  11              		.eabi_attribute 34, 1
  12              		.eabi_attribute 18, 4
  13              		.thumb
  14              		.syntax unified
  15              		.file	"user_selections.c"
  16              		.text
  17              	.Ltext0:
  18              		.cfi_sections	.debug_frame
  19              		.section	.text.user_start_cv_run,"ax",%progbits
  20              		.align	2
  21              		.global	user_start_cv_run
  22              		.thumb
  23              		.thumb_func
  24              		.type	user_start_cv_run, %function
  25              	user_start_cv_run:
  26              	.LFB64:
  27              		.file 1 "user_selections.c"
   1:user_selections.c **** /*******************************************************************************
   2:user_selections.c **** * File Name: user_selections.c
   3:user_selections.c **** *
   4:user_selections.c **** * Description:
   5:user_selections.c **** *  Make some of functions the user can call through the UART. 
   6:user_selections.c **** *  Only for the longer functions to keep main clearer
   7:user_selections.c **** *
   8:user_selections.c **** *********************************************************************************/
   9:user_selections.c **** 
  10:user_selections.c **** #include <project.h>
  11:user_selections.c **** 
  12:user_selections.c **** #include "user_selections.h"
  13:user_selections.c **** #include "InterruptRoutines.h"
  14:user_selections.c **** #include "lut_functions.h"
  15:user_selections.c **** 
  16:user_selections.c **** 
  17:user_selections.c **** 
  18:user_selections.c **** 
  19:user_selections.c **** /******************************************************************************
  20:user_selections.c **** * Function Name: user_start_cv_run
  21:user_selections.c **** *******************************************************************************
  22:user_selections.c **** *
  23:user_selections.c **** * Summary:
  24:user_selections.c **** *  Start a cyclic voltammetry experiment.  The look up table in waveform_CV_lut should
  25:user_selections.c **** *  already be created.  If the dac isr is already running this will not start and throws
  26:user_selections.c **** *  and error through the USB.  
  27:user_selections.c **** *  
  28:user_selections.c **** * Global variables:
  29:user_selections.c **** *  uint16 lut_value: value gotten from the look up table that is to be applied to the DAC
  30:user_selections.c **** *  uint16 lut_index: current index of the look up table
ARM GAS  C:\Users\teo8d\AppData\Local\Temp\ccbjIYRt.s 			page 2


  31:user_selections.c **** *  uint16 waveform_CV_lut[]:  look up table of the waveform to apply to the DAC
  32:user_selections.c **** *
  33:user_selections.c **** * Parameters:
  34:user_selections.c **** *  None
  35:user_selections.c **** *
  36:user_selections.c **** * Return:
  37:user_selections.c **** *  Starts the isr's used to perform an experiment else if the dac is already running,
  38:user_selections.c **** *  possibly because another experiment is already running, return an error through the USB
  39:user_selections.c **** *
  40:user_selections.c **** *******************************************************************************/
  41:user_selections.c **** 
  42:user_selections.c **** // It is used to setup everything that is needed for a CV scan, then the look up table is actually 
  43:user_selections.c **** void user_start_cv_run(void){
  28              		.loc 1 43 0
  29              		.cfi_startproc
  30              		@ args = 0, pretend = 0, frame = 0
  31              		@ frame_needed = 0, uses_anonymous_args = 0
  32 0000 10B5     		push	{r4, lr}
  33              		.cfi_def_cfa_offset 8
  34              		.cfi_offset 4, -8
  35              		.cfi_offset 14, -4
  44:user_selections.c ****     if (!isr_dac_GetState()){  // enable the dac isr if it isn't already enabled
  36              		.loc 1 44 0
  37 0002 FFF7FEFF 		bl	isr_dac_GetState
  38              	.LVL0:
  39 0006 E0B9     		cbnz	r0, .L1
  45:user_selections.c ****         if (isr_adcAmp_GetState()) {  // User has started cyclic voltammetry while amp is already r
  40              		.loc 1 45 0
  41 0008 FFF7FEFF 		bl	isr_adcAmp_GetState
  42              	.LVL1:
  43 000c 08B1     		cbz	r0, .L3
  46:user_selections.c ****             isr_adcAmp_Disable();
  44              		.loc 1 46 0
  45 000e FFF7FEFF 		bl	isr_adcAmp_Disable
  46              	.LVL2:
  47              	.L3:
  47:user_selections.c ****         }
  48:user_selections.c ****         lut_index = 0;  // start at the beginning of the look up table
  48              		.loc 1 48 0
  49 0012 0022     		movs	r2, #0
  50 0014 0B4B     		ldr	r3, .L5
  51 0016 1A80     		strh	r2, [r3]	@ movhi
  49:user_selections.c ****         lut_value = waveform_CV_lut[0];
  52              		.loc 1 49 0
  53 0018 0B4B     		ldr	r3, .L5+4
  54 001a 1B88     		ldrh	r3, [r3]
  55 001c 0B4C     		ldr	r4, .L5+8
  56 001e 2380     		strh	r3, [r4]	@ movhi
  50:user_selections.c ****         helper_HardwareWakeup();  // start the hardware
  57              		.loc 1 50 0
  58 0020 FFF7FEFF 		bl	helper_HardwareWakeup
  59              	.LVL3:
  51:user_selections.c ****         DVDAC_SetValue(lut_value);  // let the electrode equilibriate
  60              		.loc 1 51 0
  61 0024 2088     		ldrh	r0, [r4]
  62 0026 FFF7FEFF 		bl	DVDAC_SetValue
  63              	.LVL4:
ARM GAS  C:\Users\teo8d\AppData\Local\Temp\ccbjIYRt.s 			page 3


  52:user_selections.c ****         CyDelay(1);  // let the electrode voltage settle
  64              		.loc 1 52 0
  65 002a 0120     		movs	r0, #1
  66 002c FFF7FEFF 		bl	CyDelay
  67              	.LVL5:
  53:user_selections.c ****         ADC_SigDel_StartConvert();  // start the converstion process of the delta sigma adc so it w
  68              		.loc 1 53 0
  69 0030 FFF7FEFF 		bl	ADC_SigDel_StartConvert
  70              	.LVL6:
  54:user_selections.c ****         CyDelay(20);
  71              		.loc 1 54 0
  72 0034 1420     		movs	r0, #20
  73 0036 FFF7FEFF 		bl	CyDelay
  74              	.LVL7:
  55:user_selections.c ****         //ADC_array[0].data[lut_index] = ADC_SigDel_GetResult16();  // Hack, get first adc reading,
  56:user_selections.c ****         isr_dac_Enable();  // enable the interrupts to start the dac
  75              		.loc 1 56 0
  76 003a FFF7FEFF 		bl	isr_dac_Enable
  77              	.LVL8:
  57:user_selections.c ****         isr_adc_Enable();  // and the adc
  78              		.loc 1 57 0
  79 003e FFF7FEFF 		bl	isr_adc_Enable
  80              	.LVL9:
  81              	.L1:
  82 0042 10BD     		pop	{r4, pc}
  83              	.L6:
  84              		.align	2
  85              	.L5:
  86 0044 00000000 		.word	lut_index
  87 0048 00000000 		.word	waveform_CV_lut
  88 004c 00000000 		.word	lut_value
  89              		.cfi_endproc
  90              	.LFE64:
  91              		.size	user_start_cv_run, .-user_start_cv_run
  92              		.section	.text.user_reset_device,"ax",%progbits
  93              		.align	2
  94              		.global	user_reset_device
  95              		.thumb
  96              		.thumb_func
  97              		.type	user_reset_device, %function
  98              	user_reset_device:
  99              	.LFB65:
  58:user_selections.c ****     }
  59:user_selections.c **** 
  60:user_selections.c **** }
  61:user_selections.c **** 
  62:user_selections.c **** /******************************************************************************
  63:user_selections.c **** * Function Name: user_reset_device
  64:user_selections.c **** *******************************************************************************
  65:user_selections.c **** *
  66:user_selections.c **** * Summary:
  67:user_selections.c **** *  Stop all operations by disabling all the isrs and reset the look up table index to 0
  68:user_selections.c **** *  
  69:user_selections.c **** * Global variables:
  70:user_selections.c **** *  uint16 lut_index: current index of the look up table
  71:user_selections.c **** *
  72:user_selections.c **** * Parameters:
ARM GAS  C:\Users\teo8d\AppData\Local\Temp\ccbjIYRt.s 			page 4


  73:user_selections.c **** *  None
  74:user_selections.c **** *
  75:user_selections.c **** * Return:
  76:user_selections.c **** *  None
  77:user_selections.c **** *
  78:user_selections.c **** *******************************************************************************/
  79:user_selections.c **** 
  80:user_selections.c **** void user_reset_device(void) {
 100              		.loc 1 80 0
 101              		.cfi_startproc
 102              		@ args = 0, pretend = 0, frame = 0
 103              		@ frame_needed = 0, uses_anonymous_args = 0
 104 0000 08B5     		push	{r3, lr}
 105              		.cfi_def_cfa_offset 8
 106              		.cfi_offset 3, -8
 107              		.cfi_offset 14, -4
  81:user_selections.c ****     isr_dac_Disable();
 108              		.loc 1 81 0
 109 0002 FFF7FEFF 		bl	isr_dac_Disable
 110              	.LVL10:
  82:user_selections.c ****     isr_adc_Disable();
 111              		.loc 1 82 0
 112 0006 FFF7FEFF 		bl	isr_adc_Disable
 113              	.LVL11:
  83:user_selections.c ****     isr_adcAmp_Disable();
 114              		.loc 1 83 0
 115 000a FFF7FEFF 		bl	isr_adcAmp_Disable
 116              	.LVL12:
  84:user_selections.c ****     helper_HardwareSleep();
 117              		.loc 1 84 0
 118 000e FFF7FEFF 		bl	helper_HardwareSleep
 119              	.LVL13:
  85:user_selections.c ****     
  86:user_selections.c ****     lut_index = 0;  
 120              		.loc 1 86 0
 121 0012 0022     		movs	r2, #0
 122 0014 014B     		ldr	r3, .L9
 123 0016 1A80     		strh	r2, [r3]	@ movhi
 124 0018 08BD     		pop	{r3, pc}
 125              	.L10:
 126 001a 00BF     		.align	2
 127              	.L9:
 128 001c 00000000 		.word	lut_index
 129              		.cfi_endproc
 130              	.LFE65:
 131              		.size	user_reset_device, .-user_reset_device
 132              		.section	.text.user_set_isr_timer,"ax",%progbits
 133              		.align	2
 134              		.global	user_set_isr_timer
 135              		.thumb
 136              		.thumb_func
 137              		.type	user_set_isr_timer, %function
 138              	user_set_isr_timer:
 139              	.LFB66:
  87:user_selections.c **** }
  88:user_selections.c **** 
  89:user_selections.c **** 
ARM GAS  C:\Users\teo8d\AppData\Local\Temp\ccbjIYRt.s 			page 5


  90:user_selections.c **** 
  91:user_selections.c **** /******************************************************************************
  92:user_selections.c **** * Function Name: user_set_isr_timer
  93:user_selections.c **** *******************************************************************************
  94:user_selections.c **** *
  95:user_selections.c **** * Summary:
  96:user_selections.c **** *  Set the PWM that is used as the isr timer
  97:user_selections.c **** * 
  98:user_selections.c **** * Parameters:
  99:user_selections.c **** *  uint8 command
 100:user_selections.c **** *
 101:user_selections.c **** * Explanation:
 102:user_selections.c **** * the look up table for CV is created with all values in mV between the start and the end value
 103:user_selections.c **** * Then this look up table is scanned in the interrupt of the DAC a value at a time based on the isr
 104:user_selections.c **** * By setting a proper period for PWM, the look up table will be scanned with different speeds
 105:user_selections.c **** * ex. scan rate=100 mV/sec --> PWM period = 1000 (i.e. 1 sec) / 100 = 10 ms (i.e. 100Hz) --> look u
 106:user_selections.c **** *  
 107:user_selections.c **** * Return:
 108:user_selections.c **** *  Set the period register of the pwm 
 109:user_selections.c **** *
 110:user_selections.c **** *******************************************************************************/
 111:user_selections.c **** 
 112:user_selections.c **** 
 113:user_selections.c **** void user_set_isr_timer(uint8 command[]) {
 140              		.loc 1 113 0
 141              		.cfi_startproc
 142              		@ args = 0, pretend = 0, frame = 0
 143              		@ frame_needed = 0, uses_anonymous_args = 0
 144              	.LVL14:
 145 0000 10B5     		push	{r4, lr}
 146              		.cfi_def_cfa_offset 8
 147              		.cfi_offset 4, -8
 148              		.cfi_offset 14, -4
 149 0002 0446     		mov	r4, r0
 114:user_selections.c ****     PWM_isr_Wakeup();
 150              		.loc 1 114 0
 151 0004 FFF7FEFF 		bl	PWM_isr_Wakeup
 152              	.LVL15:
 115:user_selections.c ****     uint16 scan_rate = command[1];  // capire come gestire variabili a 16 bit
 153              		.loc 1 115 0
 154 0008 6478     		ldrb	r4, [r4, #1]	@ zero_extendqisi2
 155              	.LVL16:
 116:user_selections.c ****     uint16 new_period = 1000/scan_rate;
 156              		.loc 1 116 0
 157 000a 4FF47A73 		mov	r3, #1000
 158 000e 93FBF4F4 		sdiv	r4, r3, r4
 159              	.LVL17:
 117:user_selections.c ****     PWM_isr_WritePeriod((new_period*PWM_PERIOD_10_ms)/10); //that's needed because a period value o
 160              		.loc 1 117 0
 161 0012 40F65F13 		movw	r3, #2399
 162 0016 03FB04F3 		mul	r3, r3, r4
 163 001a 0848     		ldr	r0, .L13
 164 001c 80FB0320 		smull	r2, r0, r0, r3
 165 0020 DB17     		asrs	r3, r3, #31
 166 0022 C3EBA000 		rsb	r0, r3, r0, asr #2
 167 0026 80B2     		uxth	r0, r0
 168 0028 FFF7FEFF 		bl	PWM_isr_WritePeriod
ARM GAS  C:\Users\teo8d\AppData\Local\Temp\ccbjIYRt.s 			page 6


 169              	.LVL18:
 118:user_selections.c ****     PWM_isr_WriteCompare(new_period/2+1); //keep a DC value of 50%
 170              		.loc 1 118 0
 171 002c 6008     		lsrs	r0, r4, #1
 172 002e 0130     		adds	r0, r0, #1
 173 0030 80B2     		uxth	r0, r0
 174 0032 FFF7FEFF 		bl	PWM_isr_WriteCompare
 175              	.LVL19:
 119:user_selections.c ****     PWM_isr_Sleep();
 176              		.loc 1 119 0
 177 0036 FFF7FEFF 		bl	PWM_isr_Sleep
 178              	.LVL20:
 179 003a 10BD     		pop	{r4, pc}
 180              	.LVL21:
 181              	.L14:
 182              		.align	2
 183              	.L13:
 184 003c 67666666 		.word	1717986919
 185              		.cfi_endproc
 186              	.LFE66:
 187              		.size	user_set_isr_timer, .-user_set_isr_timer
 188              		.section	.text.user_chrono_lut_maker,"ax",%progbits
 189              		.align	2
 190              		.global	user_chrono_lut_maker
 191              		.thumb
 192              		.thumb_func
 193              		.type	user_chrono_lut_maker, %function
 194              	user_chrono_lut_maker:
 195              	.LFB67:
 120:user_selections.c **** }
 121:user_selections.c **** 
 122:user_selections.c **** /******************************************************************************
 123:user_selections.c **** * Function Name: user_chrono_lut_maker
 124:user_selections.c **** *******************************************************************************
 125:user_selections.c **** *
 126:user_selections.c **** * Summary:
 127:user_selections.c **** *  Make a look up table that will run a chronoamperometry experiment.  Hackish now
 128:user_selections.c **** * 
 129:user_selections.c **** *
 130:user_selections.c **** *  
 131:user_selections.c **** * Global variables:
 132:user_selections.c **** *  uint16 lut_value: value gotten from the look up table that is to be applied to the DAC
 133:user_selections.c **** *  uint16 waveform_amp_lut[]:  look up table of the waveform to apply to the DAC
 134:user_selections.c **** *  
 135:user_selections.c **** * Return:
 136:user_selections.c **** *  4000 - how long the look up table will be
 137:user_selections.c **** *
 138:user_selections.c **** *******************************************************************************/
 139:user_selections.c **** 
 140:user_selections.c **** void user_chrono_lut_maker() {
 196              		.loc 1 140 0
 197              		.cfi_startproc
 198              		@ args = 0, pretend = 0, frame = 0
 199              		@ frame_needed = 0, uses_anonymous_args = 0
 200 0000 08B5     		push	{r3, lr}
 201              		.cfi_def_cfa_offset 8
 202              		.cfi_offset 3, -8
ARM GAS  C:\Users\teo8d\AppData\Local\Temp\ccbjIYRt.s 			page 7


 203              		.cfi_offset 14, -4
 141:user_selections.c ****     PWM_isr_Wakeup();
 204              		.loc 1 141 0
 205 0002 FFF7FEFF 		bl	PWM_isr_Wakeup
 206              	.LVL22:
 142:user_selections.c ****     
 143:user_selections.c ****     PWM_isr_WritePeriod(PWM_PERIOD_10_ms);  //period of the PWM fixed at 10 ms for a chronoamperome
 207              		.loc 1 143 0
 208 0006 40F65F10 		movw	r0, #2399
 209 000a FFF7FEFF 		bl	PWM_isr_WritePeriod
 210              	.LVL23:
 144:user_selections.c ****     LUT_MakePulse(0, potential_max_current); //it creates a look up table for chronoamperometry bas
 211              		.loc 1 144 0
 212 000e 064B     		ldr	r3, .L17
 213 0010 1988     		ldrh	r1, [r3]
 214 0012 0020     		movs	r0, #0
 215 0014 FFF7FEFF 		bl	LUT_MakePulse
 216              	.LVL24:
 145:user_selections.c ****     lut_value = waveform_amp_lut[0];  // setup the dac so when it starts it will be at the correct 
 217              		.loc 1 145 0
 218 0018 044B     		ldr	r3, .L17+4
 219 001a 1A88     		ldrh	r2, [r3]
 220 001c 044B     		ldr	r3, .L17+8
 221 001e 1A80     		strh	r2, [r3]	@ movhi
 146:user_selections.c ****                 
 147:user_selections.c ****     PWM_isr_Sleep();
 222              		.loc 1 147 0
 223 0020 FFF7FEFF 		bl	PWM_isr_Sleep
 224              	.LVL25:
 225 0024 08BD     		pop	{r3, pc}
 226              	.L18:
 227 0026 00BF     		.align	2
 228              	.L17:
 229 0028 00000000 		.word	potential_max_current
 230 002c 00000000 		.word	waveform_amp_lut
 231 0030 00000000 		.word	lut_value
 232              		.cfi_endproc
 233              	.LFE67:
 234              		.size	user_chrono_lut_maker, .-user_chrono_lut_maker
 235              		.section	.text.user_lookup_table_maker,"ax",%progbits
 236              		.align	2
 237              		.global	user_lookup_table_maker
 238              		.thumb
 239              		.thumb_func
 240              		.type	user_lookup_table_maker, %function
 241              	user_lookup_table_maker:
 242              	.LFB68:
 148:user_selections.c **** 
 149:user_selections.c **** }
 150:user_selections.c **** 
 151:user_selections.c **** /******************************************************************************
 152:user_selections.c **** * Function Name: user_lookup_table_maker
 153:user_selections.c **** *******************************************************************************
 154:user_selections.c **** *
 155:user_selections.c **** * Summary:
 156:user_selections.c **** *  Make a look up table for CV
 157:user_selections.c **** * 
ARM GAS  C:\Users\teo8d\AppData\Local\Temp\ccbjIYRt.s 			page 8


 158:user_selections.c **** * Global variables:
 159:user_selections.c **** *  uint16 lut_value: value to get from the look up table and apply to the DAC
 160:user_selections.c **** *  uint16 waveform_CV_lut[]:  look up table of the waveform to apply to the DAC
 161:user_selections.c **** *  
 162:user_selections.c **** * Return:
 163:user_selections.c **** *  uint16 lut_length - how many look up table elements there are
 164:user_selections.c **** *
 165:user_selections.c **** *******************************************************************************/
 166:user_selections.c **** 
 167:user_selections.c **** uint16 user_lookup_table_maker(void) {
 243              		.loc 1 167 0
 244              		.cfi_startproc
 245              		@ args = 0, pretend = 0, frame = 0
 246              		@ frame_needed = 0, uses_anonymous_args = 0
 247 0000 10B5     		push	{r4, lr}
 248              		.cfi_def_cfa_offset 8
 249              		.cfi_offset 4, -8
 250              		.cfi_offset 14, -4
 168:user_selections.c ****     PWM_isr_Wakeup();
 251              		.loc 1 168 0
 252 0002 FFF7FEFF 		bl	PWM_isr_Wakeup
 253              	.LVL26:
 169:user_selections.c **** 
 170:user_selections.c ****     uint16 lut_length;
 171:user_selections.c **** 
 172:user_selections.c ****     lut_length = LUT_MakeTriangle_Wave(start_dac_value, end_dac_value); // these values are loaded 
 254              		.loc 1 172 0
 255 0006 074B     		ldr	r3, .L21
 256 0008 1988     		ldrh	r1, [r3]
 257 000a 074B     		ldr	r3, .L21+4
 258 000c 1888     		ldrh	r0, [r3]
 259 000e FFF7FEFF 		bl	LUT_MakeTriangle_Wave
 260              	.LVL27:
 261 0012 0446     		mov	r4, r0
 262              	.LVL28:
 173:user_selections.c ****      
 174:user_selections.c ****     lut_value = waveform_CV_lut[0];  // Initialize for the start of the experiment
 263              		.loc 1 174 0
 264 0014 054B     		ldr	r3, .L21+8
 265 0016 1A88     		ldrh	r2, [r3]
 266 0018 054B     		ldr	r3, .L21+12
 267 001a 1A80     		strh	r2, [r3]	@ movhi
 175:user_selections.c ****     PWM_isr_Sleep();
 268              		.loc 1 175 0
 269 001c FFF7FEFF 		bl	PWM_isr_Sleep
 270              	.LVL29:
 176:user_selections.c ****     
 177:user_selections.c ****     return lut_length;
 178:user_selections.c **** }
 271              		.loc 1 178 0
 272 0020 2046     		mov	r0, r4
 273 0022 10BD     		pop	{r4, pc}
 274              	.LVL30:
 275              	.L22:
 276              		.align	2
 277              	.L21:
 278 0024 00000000 		.word	end_dac_value
ARM GAS  C:\Users\teo8d\AppData\Local\Temp\ccbjIYRt.s 			page 9


 279 0028 00000000 		.word	start_dac_value
 280 002c 00000000 		.word	waveform_CV_lut
 281 0030 00000000 		.word	lut_value
 282              		.cfi_endproc
 283              	.LFE68:
 284              		.size	user_lookup_table_maker, .-user_lookup_table_maker
 285              		.section	.text.user_run_amperometry,"ax",%progbits
 286              		.align	2
 287              		.global	user_run_amperometry
 288              		.thumb
 289              		.thumb_func
 290              		.type	user_run_amperometry, %function
 291              	user_run_amperometry:
 292              	.LFB69:
 179:user_selections.c **** 
 180:user_selections.c **** /******************************************************************************
 181:user_selections.c **** * Function Name: user_run_amperometry
 182:user_selections.c **** 
 183:user_selections.c **** *******************************************************************************/
 184:user_selections.c **** 
 185:user_selections.c **** void user_run_amperometry(void) {
 293              		.loc 1 185 0
 294              		.cfi_startproc
 295              		@ args = 0, pretend = 0, frame = 0
 296              		@ frame_needed = 0, uses_anonymous_args = 0
 297 0000 08B5     		push	{r3, lr}
 298              		.cfi_def_cfa_offset 8
 299              		.cfi_offset 3, -8
 300              		.cfi_offset 14, -4
 186:user_selections.c ****     helper_HardwareWakeup();  
 301              		.loc 1 186 0
 302 0002 FFF7FEFF 		bl	helper_HardwareWakeup
 303              	.LVL31:
 187:user_selections.c ****     if (!isr_adcAmp_GetState()) {  // enable isr if it is not already
 304              		.loc 1 187 0
 305 0006 FFF7FEFF 		bl	isr_adcAmp_GetState
 306              	.LVL32:
 307 000a 30B9     		cbnz	r0, .L24
 188:user_selections.c ****         if (isr_dac_GetState()) {  // User selected to run amperometry but a CV is still running 
 308              		.loc 1 188 0
 309 000c FFF7FEFF 		bl	isr_dac_GetState
 310              	.LVL33:
 311 0010 18B1     		cbz	r0, .L24
 189:user_selections.c ****             isr_dac_Disable();
 312              		.loc 1 189 0
 313 0012 FFF7FEFF 		bl	isr_dac_Disable
 314              	.LVL34:
 190:user_selections.c ****             isr_adc_Disable();
 315              		.loc 1 190 0
 316 0016 FFF7FEFF 		bl	isr_adc_Disable
 317              	.LVL35:
 318              	.L24:
 191:user_selections.c ****         }
 192:user_selections.c ****     }
 193:user_selections.c ****     uint16 dac_value = 0;  // Start by setting 0 to the DAC
 194:user_selections.c ****     lut_index = 0;
 319              		.loc 1 194 0
ARM GAS  C:\Users\teo8d\AppData\Local\Temp\ccbjIYRt.s 			page 10


 320 001a 0020     		movs	r0, #0
 321 001c 054B     		ldr	r3, .L26
 322 001e 1880     		strh	r0, [r3]	@ movhi
 195:user_selections.c ****     DVDAC_SetValue(dac_value);
 323              		.loc 1 195 0
 324 0020 FFF7FEFF 		bl	DVDAC_SetValue
 325              	.LVL36:
 196:user_selections.c ****     
 197:user_selections.c ****     ADC_SigDel_StartConvert(); // looh at the isr_adcamp in the main.c for the actual operation 
 326              		.loc 1 197 0
 327 0024 FFF7FEFF 		bl	ADC_SigDel_StartConvert
 328              	.LVL37:
 198:user_selections.c ****     CyDelay(15);
 329              		.loc 1 198 0
 330 0028 0F20     		movs	r0, #15
 331 002a FFF7FEFF 		bl	CyDelay
 332              	.LVL38:
 199:user_selections.c ****     isr_adcAmp_Enable();
 333              		.loc 1 199 0
 334 002e FFF7FEFF 		bl	isr_adcAmp_Enable
 335              	.LVL39:
 336 0032 08BD     		pop	{r3, pc}
 337              	.L27:
 338              		.align	2
 339              	.L26:
 340 0034 00000000 		.word	lut_index
 341              		.cfi_endproc
 342              	.LFE69:
 343              		.size	user_run_amperometry, .-user_run_amperometry
 344              		.comm	selected_voltage_source,1,1
 345              		.comm	command_lenght,1,1
 346              		.comm	command,40,4
 347              		.comm	potential_max_current,2,2
 348              		.comm	end_dac_value,2,2
 349              		.comm	start_dac_value,2,2
 350              		.comm	uA_per_adc_count,4,4
 351              		.comm	ADC_CV_array,10000,4
 352              		.comm	lut_length,2,2
 353              		.comm	lut_index,2,2
 354              		.comm	waveform_amp_lut,4000,4
 355              		.comm	waveform_CV_lut,10000,4
 356              		.comm	lut_value,2,2
 357              		.comm	dac_ground_value,2,2
 358              		.comm	Input_Flag,1,1
 359              		.text
 360              	.Letext0:
 361              		.file 2 "c:\\program files (x86)\\cypress\\psoc creator\\4.4\\psoc creator\\import\\gnu\\arm\\5.4.
 362              		.file 3 "c:\\program files (x86)\\cypress\\psoc creator\\4.4\\psoc creator\\import\\gnu\\arm\\5.4.
 363              		.file 4 "Generated_Source\\PSoC5/cytypes.h"
 364              		.file 5 "Generated_Source\\PSoC5/core_cm3.h"
 365              		.file 6 "Global_variables.h"
 366              		.file 7 "lut_functions.h"
 367              		.file 8 "Helper_functions.h"
 368              		.file 9 "Generated_Source\\PSoC5/isr_dac.h"
 369              		.file 10 "Generated_Source\\PSoC5/isr_adcAmp.h"
 370              		.file 11 "DVDAC.h"
 371              		.file 12 "Generated_Source\\PSoC5/CyLib.h"
ARM GAS  C:\Users\teo8d\AppData\Local\Temp\ccbjIYRt.s 			page 11


 372              		.file 13 "Generated_Source\\PSoC5/ADC_SigDel.h"
 373              		.file 14 "Generated_Source\\PSoC5/isr_adc.h"
 374              		.file 15 "Generated_Source\\PSoC5/PWM_isr.h"