ARM GAS  C:\Users\lucac\AppData\Local\Temp\ccgthfnp.s 			page 1


   1              		.syntax unified
   2              		.cpu cortex-m3
   3              		.fpu softvfp
   4              		.eabi_attribute 20, 1
   5              		.eabi_attribute 21, 1
   6              		.eabi_attribute 23, 3
   7              		.eabi_attribute 24, 1
   8              		.eabi_attribute 25, 1
   9              		.eabi_attribute 26, 1
  10              		.eabi_attribute 30, 1
  11              		.eabi_attribute 34, 1
  12              		.eabi_attribute 18, 4
  13              		.thumb
  14              		.syntax unified
  15              		.file	"EEPROM_Driver.c"
  16              		.text
  17              	.Ltext0:
  18              		.cfi_sections	.debug_frame
  19              		.section	.text.EEPROM_ReadRegister,"ax",%progbits
  20              		.align	2
  21              		.global	EEPROM_ReadRegister
  22              		.thumb
  23              		.thumb_func
  24              		.type	EEPROM_ReadRegister, %function
  25              	EEPROM_ReadRegister:
  26              	.LFB64:
  27              		.file 1 "EEPROM_Driver.c"
   1:EEPROM_Driver.c **** /* ========================================================================
   2:EEPROM_Driver.c ****  *
   3:EEPROM_Driver.c ****  * ELECTRONIC TECHNOLOGIES AND BIOSENSORS LABORATORY
   4:EEPROM_Driver.c ****  * Academic year 2021/22, II Semester
   5:EEPROM_Driver.c ****  * Final Project
   6:EEPROM_Driver.c ****  *
   7:EEPROM_Driver.c ****  * Authors: Group 2
   8:EEPROM_Driver.c ****  *
   9:EEPROM_Driver.c ****  * ----------------------- EEPROM Driver (source) -------------------------
  10:EEPROM_Driver.c ****  * 
  11:EEPROM_Driver.c ****  * ------------------------------------------------------------------------
  12:EEPROM_Driver.c ****  * 
  13:EEPROM_Driver.c ****  * ========================================================================
  14:EEPROM_Driver.c **** */
  15:EEPROM_Driver.c **** 
  16:EEPROM_Driver.c **** #include <project.h>
  17:EEPROM_Driver.c **** #include <stdlib.h>
  18:EEPROM_Driver.c **** #include <math.h>
  19:EEPROM_Driver.c **** #include <stdio.h>
  20:EEPROM_Driver.c **** 
  21:EEPROM_Driver.c **** #include "EEPROM_Driver.h"
  22:EEPROM_Driver.c **** 
  23:EEPROM_Driver.c **** /*------------------------------------------------------------------------
  24:EEPROM_Driver.c **** *                       FUNCTIONS IMPLEMENTATION
  25:EEPROM_Driver.c **** -------------------------------------------------------------------------*/
  26:EEPROM_Driver.c **** /*  EEPROM READ REGISTER
  27:EEPROM_Driver.c **** *   \brief: Function that reads slave register content
  28:EEPROM_Driver.c **** *   \Parameters:
  29:EEPROM_Driver.c **** *       @param device_address: 8-bit slave device address
  30:EEPROM_Driver.c **** *       @param register_address: 16-bit address of the register where content is stored
ARM GAS  C:\Users\lucac\AppData\Local\Temp\ccgthfnp.s 			page 2


  31:EEPROM_Driver.c **** *       @param data: pointer to array where to store read value
  32:EEPROM_Driver.c **** *   \Return: error (if reading is successfull or not)
  33:EEPROM_Driver.c **** */
  34:EEPROM_Driver.c **** ErrorCode EEPROM_ReadRegister(uint8_t device_address, uint16_t register_address, uint8_t* data){
  28              		.loc 1 34 0
  29              		.cfi_startproc
  30              		@ args = 0, pretend = 0, frame = 0
  31              		@ frame_needed = 0, uses_anonymous_args = 0
  32              	.LVL0:
  33 0000 F8B5     		push	{r3, r4, r5, r6, r7, lr}
  34              		.cfi_def_cfa_offset 24
  35              		.cfi_offset 3, -24
  36              		.cfi_offset 4, -20
  37              		.cfi_offset 5, -16
  38              		.cfi_offset 6, -12
  39              		.cfi_offset 7, -8
  40              		.cfi_offset 14, -4
  41 0002 0646     		mov	r6, r0
  42 0004 0D46     		mov	r5, r1
  43 0006 1746     		mov	r7, r2
  35:EEPROM_Driver.c ****      
  36:EEPROM_Driver.c ****     //The function returns an ACK or NACK.
  37:EEPROM_Driver.c ****     uint8_t error = I2CMASTER_MasterSendStart(device_address, I2CMASTER_WRITE_XFER_MODE);          
  44              		.loc 1 37 0
  45 0008 0021     		movs	r1, #0
  46              	.LVL1:
  47 000a FFF7FEFF 		bl	I2CMASTER_MasterSendStart
  48              	.LVL2:
  38:EEPROM_Driver.c ****     if (error == I2CMASTER_MSTR_NO_ERROR)
  49              		.loc 1 38 0
  50 000e 0446     		mov	r4, r0
  51 0010 78B9     		cbnz	r0, .L2
  39:EEPROM_Driver.c ****     {
  40:EEPROM_Driver.c ****         //Write the register address to be read. HIGH byte first, LOW byte then
  41:EEPROM_Driver.c ****         error = I2CMASTER_MasterWriteByte(register_address & 0xFF00);
  52              		.loc 1 41 0
  53 0012 FFF7FEFF 		bl	I2CMASTER_MasterWriteByte
  54              	.LVL3:
  42:EEPROM_Driver.c ****         error = I2CMASTER_MasterWriteByte(register_address & 0x00FF);
  55              		.loc 1 42 0
  56 0016 E8B2     		uxtb	r0, r5
  57 0018 FFF7FEFF 		bl	I2CMASTER_MasterWriteByte
  58              	.LVL4:
  43:EEPROM_Driver.c ****         if (error == I2CMASTER_MSTR_NO_ERROR)
  59              		.loc 1 43 0
  60 001c 0446     		mov	r4, r0
  61 001e 40B9     		cbnz	r0, .L2
  44:EEPROM_Driver.c ****         {
  45:EEPROM_Driver.c ****             
  46:EEPROM_Driver.c ****             error = I2CMASTER_MasterSendRestart(device_address, I2CMASTER_READ_XFER_MODE);
  62              		.loc 1 46 0
  63 0020 0121     		movs	r1, #1
  64 0022 3046     		mov	r0, r6
  65              	.LVL5:
  66 0024 FFF7FEFF 		bl	I2CMASTER_MasterSendRestart
  67              	.LVL6:
  47:EEPROM_Driver.c ****             if (error == I2CMASTER_MSTR_NO_ERROR)
ARM GAS  C:\Users\lucac\AppData\Local\Temp\ccgthfnp.s 			page 3


  68              		.loc 1 47 0
  69 0028 0446     		mov	r4, r0
  70 002a 10B9     		cbnz	r0, .L2
  48:EEPROM_Driver.c ****             {
  49:EEPROM_Driver.c ****                 *data = I2CMASTER_MasterReadByte(I2CMASTER_NAK_DATA); //The NACK is needed otherwis
  71              		.loc 1 49 0
  72 002c FFF7FEFF 		bl	I2CMASTER_MasterReadByte
  73              	.LVL7:
  74 0030 3870     		strb	r0, [r7]
  75              	.L2:
  76              	.LVL8:
  50:EEPROM_Driver.c ****             }
  51:EEPROM_Driver.c ****         }
  52:EEPROM_Driver.c ****     }
  53:EEPROM_Driver.c **** 
  54:EEPROM_Driver.c ****     I2CMASTER_MasterSendStop();
  77              		.loc 1 54 0
  78 0032 FFF7FEFF 		bl	I2CMASTER_MasterSendStop
  79              	.LVL9:
  55:EEPROM_Driver.c **** 
  56:EEPROM_Driver.c ****     return error ? ERROR : NO_ERROR;
  57:EEPROM_Driver.c **** }
  80              		.loc 1 57 0
  81 0036 201C     		adds	r0, r4, #0
  82 0038 18BF     		it	ne
  83 003a 0120     		movne	r0, #1
  84 003c F8BD     		pop	{r3, r4, r5, r6, r7, pc}
  85              		.cfi_endproc
  86              	.LFE64:
  87              		.size	EEPROM_ReadRegister, .-EEPROM_ReadRegister
  88 003e 00BF     		.section	.text.EEPROM_WriteRegister,"ax",%progbits
  89              		.align	2
  90              		.global	EEPROM_WriteRegister
  91              		.thumb
  92              		.thumb_func
  93              		.type	EEPROM_WriteRegister, %function
  94              	EEPROM_WriteRegister:
  95              	.LFB65:
  58:EEPROM_Driver.c **** 
  59:EEPROM_Driver.c **** /*  EEPROM WRITE REGISTER
  60:EEPROM_Driver.c **** *   \brief: Function that sets slave register content
  61:EEPROM_Driver.c **** *   \Parameters:
  62:EEPROM_Driver.c **** *       @param device_address: 8-bit slave device address
  63:EEPROM_Driver.c **** *       @param register_address: 16-bit address of the register where content has to be written
  64:EEPROM_Driver.c **** *       @param data: pointer to array containing values to be written
  65:EEPROM_Driver.c **** *   \Return: error (if writing is successfull or not)
  66:EEPROM_Driver.c **** */
  67:EEPROM_Driver.c **** ErrorCode EEPROM_WriteRegister(uint8_t device_address, uint16_t register_address, uint8_t data){   
  96              		.loc 1 67 0
  97              		.cfi_startproc
  98              		@ args = 0, pretend = 0, frame = 0
  99              		@ frame_needed = 0, uses_anonymous_args = 0
 100              	.LVL10:
 101 0000 70B5     		push	{r4, r5, r6, lr}
 102              		.cfi_def_cfa_offset 16
 103              		.cfi_offset 4, -16
 104              		.cfi_offset 5, -12
ARM GAS  C:\Users\lucac\AppData\Local\Temp\ccgthfnp.s 			page 4


 105              		.cfi_offset 6, -8
 106              		.cfi_offset 14, -4
 107 0002 0D46     		mov	r5, r1
 108 0004 1646     		mov	r6, r2
  68:EEPROM_Driver.c ****     
  69:EEPROM_Driver.c ****     uint8_t error = I2CMASTER_MasterSendStart(device_address, I2CMASTER_WRITE_XFER_MODE);
 109              		.loc 1 69 0
 110 0006 0021     		movs	r1, #0
 111              	.LVL11:
 112 0008 FFF7FEFF 		bl	I2CMASTER_MasterSendStart
 113              	.LVL12:
  70:EEPROM_Driver.c ****     
  71:EEPROM_Driver.c ****     if (error == I2CMASTER_MSTR_NO_ERROR)
 114              		.loc 1 71 0
 115 000c 0446     		mov	r4, r0
 116 000e 50B9     		cbnz	r0, .L5
  72:EEPROM_Driver.c ****     {
  73:EEPROM_Driver.c ****         // Write Register Address HIGH byte first, LOW byte then
  74:EEPROM_Driver.c ****         error = I2CMASTER_MasterWriteByte(register_address & 0xFF00);
 117              		.loc 1 74 0
 118 0010 FFF7FEFF 		bl	I2CMASTER_MasterWriteByte
 119              	.LVL13:
  75:EEPROM_Driver.c ****         error = I2CMASTER_MasterWriteByte(register_address & 0x00FF);
 120              		.loc 1 75 0
 121 0014 E8B2     		uxtb	r0, r5
 122 0016 FFF7FEFF 		bl	I2CMASTER_MasterWriteByte
 123              	.LVL14:
  76:EEPROM_Driver.c ****         if (error == I2CMASTER_MSTR_NO_ERROR)
 124              		.loc 1 76 0
 125 001a 0446     		mov	r4, r0
 126 001c 18B9     		cbnz	r0, .L5
  77:EEPROM_Driver.c ****         {
  78:EEPROM_Driver.c ****             // Write data byte content
  79:EEPROM_Driver.c ****             error = I2CMASTER_MasterWriteByte(data);
 127              		.loc 1 79 0
 128 001e 3046     		mov	r0, r6
 129              	.LVL15:
 130 0020 FFF7FEFF 		bl	I2CMASTER_MasterWriteByte
 131              	.LVL16:
 132 0024 0446     		mov	r4, r0
 133              	.LVL17:
 134              	.L5:
  80:EEPROM_Driver.c ****         }
  81:EEPROM_Driver.c ****     }
  82:EEPROM_Driver.c **** 
  83:EEPROM_Driver.c ****     I2CMASTER_MasterSendStop();
 135              		.loc 1 83 0
 136 0026 FFF7FEFF 		bl	I2CMASTER_MasterSendStop
 137              	.LVL18:
  84:EEPROM_Driver.c **** 
  85:EEPROM_Driver.c ****     return error ? ERROR : NO_ERROR;
  86:EEPROM_Driver.c **** }
 138              		.loc 1 86 0
 139 002a 201C     		adds	r0, r4, #0
 140 002c 18BF     		it	ne
 141 002e 0120     		movne	r0, #1
 142 0030 70BD     		pop	{r4, r5, r6, pc}
ARM GAS  C:\Users\lucac\AppData\Local\Temp\ccgthfnp.s 			page 5


 143              		.cfi_endproc
 144              	.LFE65:
 145              		.size	EEPROM_WriteRegister, .-EEPROM_WriteRegister
 146 0032 00BF     		.section	.text.save_current_measurement,"ax",%progbits
 147              		.align	2
 148              		.global	save_current_measurement
 149              		.thumb
 150              		.thumb_func
 151              		.type	save_current_measurement, %function
 152              	save_current_measurement:
 153              	.LFB66:
  87:EEPROM_Driver.c **** 
  88:EEPROM_Driver.c **** void save_current_measurement(uint8_t glucose_concentration) {
 154              		.loc 1 88 0
 155              		.cfi_startproc
 156              		@ args = 0, pretend = 0, frame = 0
 157              		@ frame_needed = 0, uses_anonymous_args = 0
 158              	.LVL19:
 159 0000 10B5     		push	{r4, lr}
 160              		.cfi_def_cfa_offset 8
 161              		.cfi_offset 4, -8
 162              		.cfi_offset 14, -4
 163 0002 0446     		mov	r4, r0
  89:EEPROM_Driver.c ****     
  90:EEPROM_Driver.c ****     ErrorCode error;
  91:EEPROM_Driver.c ****     
  92:EEPROM_Driver.c ****     error = EEPROM_WriteRegister(EEPROM_ADDRESS, eeprom_current_address, current_seconds);
 164              		.loc 1 92 0
 165 0004 314B     		ldr	r3, .L16
 166 0006 1A78     		ldrb	r2, [r3]	@ zero_extendqisi2
 167 0008 314B     		ldr	r3, .L16+4
 168 000a 1988     		ldrh	r1, [r3]
 169 000c 5020     		movs	r0, #80
 170              	.LVL20:
 171 000e FFF7FEFF 		bl	EEPROM_WriteRegister
 172              	.LVL21:
  93:EEPROM_Driver.c ****     if(error == ERROR) {
 173              		.loc 1 93 0
 174 0012 0128     		cmp	r0, #1
 175 0014 02D1     		bne	.L8
  94:EEPROM_Driver.c ****         UART_1_PutString("\nError in saving seconds in EEPROM memory\r\n");
 176              		.loc 1 94 0
 177 0016 2F48     		ldr	r0, .L16+8
 178              	.LVL22:
 179 0018 FFF7FEFF 		bl	UART_1_PutString
 180              	.LVL23:
 181              	.L8:
  95:EEPROM_Driver.c ****     }
  96:EEPROM_Driver.c ****     
  97:EEPROM_Driver.c ****     error = EEPROM_WriteRegister(EEPROM_ADDRESS, eeprom_current_address + 1, current_minutes);
 182              		.loc 1 97 0
 183 001c 2C4B     		ldr	r3, .L16+4
 184 001e 1988     		ldrh	r1, [r3]
 185 0020 0131     		adds	r1, r1, #1
 186 0022 2D4B     		ldr	r3, .L16+12
 187 0024 1A78     		ldrb	r2, [r3]	@ zero_extendqisi2
 188 0026 89B2     		uxth	r1, r1
ARM GAS  C:\Users\lucac\AppData\Local\Temp\ccgthfnp.s 			page 6


 189 0028 5020     		movs	r0, #80
 190 002a FFF7FEFF 		bl	EEPROM_WriteRegister
 191              	.LVL24:
  98:EEPROM_Driver.c ****     if(error == ERROR) {
 192              		.loc 1 98 0
 193 002e 0128     		cmp	r0, #1
 194 0030 02D1     		bne	.L9
  99:EEPROM_Driver.c ****         UART_1_PutString("\nError in saving minutes in EEPROM memory\r\n");
 195              		.loc 1 99 0
 196 0032 2A48     		ldr	r0, .L16+16
 197              	.LVL25:
 198 0034 FFF7FEFF 		bl	UART_1_PutString
 199              	.LVL26:
 200              	.L9:
 100:EEPROM_Driver.c ****     }
 101:EEPROM_Driver.c ****     
 102:EEPROM_Driver.c ****     error = EEPROM_WriteRegister(EEPROM_ADDRESS, eeprom_current_address + 2, current_hours);
 201              		.loc 1 102 0
 202 0038 254B     		ldr	r3, .L16+4
 203 003a 1988     		ldrh	r1, [r3]
 204 003c 0231     		adds	r1, r1, #2
 205 003e 284B     		ldr	r3, .L16+20
 206 0040 1A78     		ldrb	r2, [r3]	@ zero_extendqisi2
 207 0042 89B2     		uxth	r1, r1
 208 0044 5020     		movs	r0, #80
 209 0046 FFF7FEFF 		bl	EEPROM_WriteRegister
 210              	.LVL27:
 103:EEPROM_Driver.c ****     if(error == ERROR) {
 211              		.loc 1 103 0
 212 004a 0128     		cmp	r0, #1
 213 004c 02D1     		bne	.L10
 104:EEPROM_Driver.c ****         UART_1_PutString("\nError in saving hours in EEPROM memory\r\n");
 214              		.loc 1 104 0
 215 004e 2548     		ldr	r0, .L16+24
 216              	.LVL28:
 217 0050 FFF7FEFF 		bl	UART_1_PutString
 218              	.LVL29:
 219              	.L10:
 105:EEPROM_Driver.c ****     }
 106:EEPROM_Driver.c ****     
 107:EEPROM_Driver.c ****     error = EEPROM_WriteRegister(EEPROM_ADDRESS, eeprom_current_address + 3, current_date);
 220              		.loc 1 107 0
 221 0054 1E4B     		ldr	r3, .L16+4
 222 0056 1988     		ldrh	r1, [r3]
 223 0058 0331     		adds	r1, r1, #3
 224 005a 234B     		ldr	r3, .L16+28
 225 005c 1A78     		ldrb	r2, [r3]	@ zero_extendqisi2
 226 005e 89B2     		uxth	r1, r1
 227 0060 5020     		movs	r0, #80
 228 0062 FFF7FEFF 		bl	EEPROM_WriteRegister
 229              	.LVL30:
 108:EEPROM_Driver.c ****     if(error == ERROR) {
 230              		.loc 1 108 0
 231 0066 0128     		cmp	r0, #1
 232 0068 02D1     		bne	.L11
 109:EEPROM_Driver.c ****         UART_1_PutString("\nError in saving date in EEPROM memory\r\n");
 233              		.loc 1 109 0
ARM GAS  C:\Users\lucac\AppData\Local\Temp\ccgthfnp.s 			page 7


 234 006a 2048     		ldr	r0, .L16+32
 235              	.LVL31:
 236 006c FFF7FEFF 		bl	UART_1_PutString
 237              	.LVL32:
 238              	.L11:
 110:EEPROM_Driver.c ****     }
 111:EEPROM_Driver.c ****     
 112:EEPROM_Driver.c ****     error = EEPROM_WriteRegister(EEPROM_ADDRESS, eeprom_current_address + 4, current_month);
 239              		.loc 1 112 0
 240 0070 174B     		ldr	r3, .L16+4
 241 0072 1988     		ldrh	r1, [r3]
 242 0074 0431     		adds	r1, r1, #4
 243 0076 1E4B     		ldr	r3, .L16+36
 244 0078 1A78     		ldrb	r2, [r3]	@ zero_extendqisi2
 245 007a 89B2     		uxth	r1, r1
 246 007c 5020     		movs	r0, #80
 247 007e FFF7FEFF 		bl	EEPROM_WriteRegister
 248              	.LVL33:
 113:EEPROM_Driver.c ****     if(error == ERROR) {
 249              		.loc 1 113 0
 250 0082 0128     		cmp	r0, #1
 251 0084 02D1     		bne	.L12
 114:EEPROM_Driver.c ****         UART_1_PutString("\nError in saving month in EEPROM memory\r\n");
 252              		.loc 1 114 0
 253 0086 1B48     		ldr	r0, .L16+40
 254              	.LVL34:
 255 0088 FFF7FEFF 		bl	UART_1_PutString
 256              	.LVL35:
 257              	.L12:
 115:EEPROM_Driver.c ****     }
 116:EEPROM_Driver.c ****     
 117:EEPROM_Driver.c ****     error = EEPROM_WriteRegister(EEPROM_ADDRESS, eeprom_current_address + 5, current_year);
 258              		.loc 1 117 0
 259 008c 104B     		ldr	r3, .L16+4
 260 008e 1988     		ldrh	r1, [r3]
 261 0090 0531     		adds	r1, r1, #5
 262 0092 194B     		ldr	r3, .L16+44
 263 0094 1A78     		ldrb	r2, [r3]	@ zero_extendqisi2
 264 0096 89B2     		uxth	r1, r1
 265 0098 5020     		movs	r0, #80
 266 009a FFF7FEFF 		bl	EEPROM_WriteRegister
 267              	.LVL36:
 118:EEPROM_Driver.c ****     if(error == ERROR) {
 268              		.loc 1 118 0
 269 009e 0128     		cmp	r0, #1
 270 00a0 02D1     		bne	.L13
 119:EEPROM_Driver.c ****         UART_1_PutString("\nError in saving year in EEPROM memory\r\n");
 271              		.loc 1 119 0
 272 00a2 1648     		ldr	r0, .L16+48
 273              	.LVL37:
 274 00a4 FFF7FEFF 		bl	UART_1_PutString
 275              	.LVL38:
 276              	.L13:
 120:EEPROM_Driver.c ****     }
 121:EEPROM_Driver.c ****     
 122:EEPROM_Driver.c ****     error = EEPROM_WriteRegister(EEPROM_ADDRESS, eeprom_current_address + 6, glucose_concentration)
 277              		.loc 1 122 0
ARM GAS  C:\Users\lucac\AppData\Local\Temp\ccgthfnp.s 			page 8


 278 00a8 094B     		ldr	r3, .L16+4
 279 00aa 1988     		ldrh	r1, [r3]
 280 00ac 0631     		adds	r1, r1, #6
 281 00ae 2246     		mov	r2, r4
 282 00b0 89B2     		uxth	r1, r1
 283 00b2 5020     		movs	r0, #80
 284 00b4 FFF7FEFF 		bl	EEPROM_WriteRegister
 285              	.LVL39:
 123:EEPROM_Driver.c ****     if(error == ERROR) {
 286              		.loc 1 123 0
 287 00b8 0128     		cmp	r0, #1
 288 00ba 02D1     		bne	.L14
 124:EEPROM_Driver.c ****         UART_1_PutString("\nError in saving glucose data in EEPROM memory\r\n");
 289              		.loc 1 124 0
 290 00bc 1048     		ldr	r0, .L16+52
 291              	.LVL40:
 292 00be FFF7FEFF 		bl	UART_1_PutString
 293              	.LVL41:
 294              	.L14:
 125:EEPROM_Driver.c ****     }
 126:EEPROM_Driver.c ****     
 127:EEPROM_Driver.c ****     eeprom_current_address += 7;
 295              		.loc 1 127 0
 296 00c2 034A     		ldr	r2, .L16+4
 297 00c4 1388     		ldrh	r3, [r2]
 298 00c6 0733     		adds	r3, r3, #7
 299 00c8 1380     		strh	r3, [r2]	@ movhi
 300 00ca 10BD     		pop	{r4, pc}
 301              	.L17:
 302              		.align	2
 303              	.L16:
 304 00cc 00000000 		.word	current_seconds
 305 00d0 00000000 		.word	eeprom_current_address
 306 00d4 00000000 		.word	.LC0
 307 00d8 00000000 		.word	current_minutes
 308 00dc 2C000000 		.word	.LC1
 309 00e0 00000000 		.word	current_hours
 310 00e4 58000000 		.word	.LC2
 311 00e8 00000000 		.word	current_date
 312 00ec 84000000 		.word	.LC3
 313 00f0 00000000 		.word	current_month
 314 00f4 B0000000 		.word	.LC4
 315 00f8 00000000 		.word	current_year
 316 00fc DC000000 		.word	.LC5
 317 0100 08010000 		.word	.LC6
 318              		.cfi_endproc
 319              	.LFE66:
 320              		.size	save_current_measurement, .-save_current_measurement
 321              		.section	.text.get_measurement_from_memory,"ax",%progbits
 322              		.align	2
 323              		.global	get_measurement_from_memory
 324              		.thumb
 325              		.thumb_func
 326              		.type	get_measurement_from_memory, %function
 327              	get_measurement_from_memory:
 328              	.LFB67:
 128:EEPROM_Driver.c **** }
ARM GAS  C:\Users\lucac\AppData\Local\Temp\ccgthfnp.s 			page 9


 129:EEPROM_Driver.c **** 
 130:EEPROM_Driver.c **** uint8_t get_measurement_from_memory(uint16_t eeprom_address) {
 329              		.loc 1 130 0
 330              		.cfi_startproc
 331              		@ args = 0, pretend = 0, frame = 72
 332              		@ frame_needed = 0, uses_anonymous_args = 0
 333              	.LVL42:
 334 0000 00B5     		push	{lr}
 335              		.cfi_def_cfa_offset 4
 336              		.cfi_offset 14, -4
 337 0002 93B0     		sub	sp, sp, #76
 338              		.cfi_def_cfa_offset 80
 339              	.LVL43:
 131:EEPROM_Driver.c ****     
 132:EEPROM_Driver.c ****     ErrorCode error;
 133:EEPROM_Driver.c ****     uint8_t data;
 134:EEPROM_Driver.c ****     int len = 0;
 135:EEPROM_Driver.c ****     char str[64];
 136:EEPROM_Driver.c ****     
 137:EEPROM_Driver.c ****     error = EEPROM_ReadRegister(EEPROM_ADDRESS, eeprom_address, &data);
 340              		.loc 1 137 0
 341 0004 0DF14702 		add	r2, sp, #71
 342 0008 0146     		mov	r1, r0
 343 000a 5020     		movs	r0, #80
 344              	.LVL44:
 345 000c FFF7FEFF 		bl	EEPROM_ReadRegister
 346              	.LVL45:
 138:EEPROM_Driver.c ****     
 139:EEPROM_Driver.c ****     if(error == ERROR) {
 347              		.loc 1 139 0
 348 0010 0128     		cmp	r0, #1
 349 0012 02D1     		bne	.L19
 140:EEPROM_Driver.c ****         UART_1_PutString("\nError in reading data from EEPROM memory\r\n");
 350              		.loc 1 140 0
 351 0014 0848     		ldr	r0, .L21
 352              	.LVL46:
 353 0016 FFF7FEFF 		bl	UART_1_PutString
 354              	.LVL47:
 355              	.L19:
 141:EEPROM_Driver.c ****     }
 142:EEPROM_Driver.c ****     
 143:EEPROM_Driver.c ****     len = snprintf(str, sizeof(str), "\nFrom memory: %d\r\n\n", data);
 356              		.loc 1 143 0
 357 001a 9DF84730 		ldrb	r3, [sp, #71]	@ zero_extendqisi2
 358 001e 074A     		ldr	r2, .L21+4
 359 0020 4021     		movs	r1, #64
 360 0022 01A8     		add	r0, sp, #4
 361 0024 FFF7FEFF 		bl	snprintf
 362              	.LVL48:
 144:EEPROM_Driver.c ****     UART_1_PutString(str);
 363              		.loc 1 144 0
 364 0028 01A8     		add	r0, sp, #4
 365 002a FFF7FEFF 		bl	UART_1_PutString
 366              	.LVL49:
 145:EEPROM_Driver.c ****     
 146:EEPROM_Driver.c ****     return data;
 147:EEPROM_Driver.c **** }
ARM GAS  C:\Users\lucac\AppData\Local\Temp\ccgthfnp.s 			page 10


 367              		.loc 1 147 0
 368 002e 9DF84700 		ldrb	r0, [sp, #71]	@ zero_extendqisi2
 369 0032 13B0     		add	sp, sp, #76
 370              		.cfi_def_cfa_offset 4
 371              		@ sp needed
 372 0034 5DF804FB 		ldr	pc, [sp], #4
 373              	.L22:
 374              		.align	2
 375              	.L21:
 376 0038 3C010000 		.word	.LC7
 377 003c 68010000 		.word	.LC8
 378              		.cfi_endproc
 379              	.LFE67:
 380              		.size	get_measurement_from_memory, .-get_measurement_from_memory
 381              		.comm	eeprom_current_address,2,2
 382              		.comm	current_year,2,2
 383              		.comm	current_month,1,1
 384              		.comm	current_date,1,1
 385              		.comm	current_hours,1,1
 386              		.comm	current_minutes,1,1
 387              		.comm	current_seconds,1,1
 388              		.section	.rodata.str1.4,"aMS",%progbits,1
 389              		.align	2
 390              	.LC0:
 391 0000 0A457272 		.ascii	"\012Error in saving seconds in EEPROM memory\015\012"
 391      6F722069 
 391      6E207361 
 391      76696E67 
 391      20736563 
 392 002b 00       		.ascii	"\000"
 393              	.LC1:
 394 002c 0A457272 		.ascii	"\012Error in saving minutes in EEPROM memory\015\012"
 394      6F722069 
 394      6E207361 
 394      76696E67 
 394      206D696E 
 395 0057 00       		.ascii	"\000"
 396              	.LC2:
 397 0058 0A457272 		.ascii	"\012Error in saving hours in EEPROM memory\015\012\000"
 397      6F722069 
 397      6E207361 
 397      76696E67 
 397      20686F75 
 398 0082 0000     		.space	2
 399              	.LC3:
 400 0084 0A457272 		.ascii	"\012Error in saving date in EEPROM memory\015\012\000"
 400      6F722069 
 400      6E207361 
 400      76696E67 
 400      20646174 
 401 00ad 000000   		.space	3
 402              	.LC4:
 403 00b0 0A457272 		.ascii	"\012Error in saving month in EEPROM memory\015\012\000"
 403      6F722069 
 403      6E207361 
 403      76696E67 
 403      206D6F6E 
ARM GAS  C:\Users\lucac\AppData\Local\Temp\ccgthfnp.s 			page 11


 404 00da 0000     		.space	2
 405              	.LC5:
 406 00dc 0A457272 		.ascii	"\012Error in saving year in EEPROM memory\015\012\000"
 406      6F722069 
 406      6E207361 
 406      76696E67 
 406      20796561 
 407 0105 000000   		.space	3
 408              	.LC6:
 409 0108 0A457272 		.ascii	"\012Error in saving glucose data in EEPROM memory\015"
 409      6F722069 
 409      6E207361 
 409      76696E67 
 409      20676C75 
 410 0137 0A00     		.ascii	"\012\000"
 411 0139 000000   		.space	3
 412              	.LC7:
 413 013c 0A457272 		.ascii	"\012Error in reading data from EEPROM memory\015\012"
 413      6F722069 
 413      6E207265 
 413      6164696E 
 413      67206461 
 414 0167 00       		.ascii	"\000"
 415              	.LC8:
 416 0168 0A46726F 		.ascii	"\012From memory: %d\015\012\012\000"
 416      6D206D65 
 416      6D6F7279 
 416      3A202564 
 416      0D0A0A00 
 417              		.text
 418              	.Letext0:
 419              		.file 2 "c:\\program files (x86)\\cypress\\psoc creator\\4.4\\psoc creator\\import\\gnu\\arm\\5.4.
 420              		.file 3 "c:\\program files (x86)\\cypress\\psoc creator\\4.4\\psoc creator\\import\\gnu\\arm\\5.4.
 421              		.file 4 "ErrorCodes.h"
 422              		.file 5 "Generated_Source\\PSoC5/core_cm3.h"
 423              		.file 6 "Globals.h"
 424              		.file 7 "Generated_Source\\PSoC5/I2CMASTER.h"
 425              		.file 8 "Generated_Source\\PSoC5/UART_1.h"
 426              		.file 9 "c:\\program files (x86)\\cypress\\psoc creator\\4.4\\psoc creator\\import\\gnu\\arm\\5.4.