ARM GAS  C:\Users\lucac\AppData\Local\Temp\ccyai1aZ.s 			page 1


   1              		.syntax unified
   2              		.cpu cortex-m3
   3              		.fpu softvfp
   4              		.eabi_attribute 20, 1
   5              		.eabi_attribute 21, 1
   6              		.eabi_attribute 23, 3
   7              		.eabi_attribute 24, 1
   8              		.eabi_attribute 25, 1
   9              		.eabi_attribute 26, 1
  10              		.eabi_attribute 30, 1
  11              		.eabi_attribute 34, 1
  12              		.eabi_attribute 18, 4
  13              		.thumb
  14              		.syntax unified
  15              		.file	"main.c"
  16              		.text
  17              	.Ltext0:
  18              		.cfi_sections	.debug_frame
  19              		.section	.text.main,"ax",%progbits
  20              		.align	2
  21              		.global	main
  22              		.thumb
  23              		.thumb_func
  24              		.type	main, %function
  25              	main:
  26              	.LFB64:
  27              		.file 1 "main.c"
   1:main.c        **** /* ========================================================================
   2:main.c        ****  *
   3:main.c        ****  * ELECTRONIC TECHNOLOGIES AND BIOSENSORS LABORATORY
   4:main.c        ****  * Academic year 2021/22, II Semester
   5:main.c        ****  * Final Project
   6:main.c        ****  *
   7:main.c        ****  * Authors: Group 2
   8:main.c        ****  *
   9:main.c        ****  * --------------------------------- MAIN ---------------------------------
  10:main.c        ****  * Main file.
  11:main.c        ****  * ------------------------------------------------------------------------
  12:main.c        ****  * 
  13:main.c        ****  * ========================================================================
  14:main.c        **** */
  15:main.c        **** #include <project.h>
  16:main.c        **** #include <string.h>
  17:main.c        **** #include <stdio.h>
  18:main.c        **** 
  19:main.c        **** #include "OLED_Driver.h"
  20:main.c        **** #include "RTC_Driver.h"
  21:main.c        **** #include "EEPROM_Driver.h"
  22:main.c        **** #include "ErrorCodes.h"
  23:main.c        **** #include "time.h"
  24:main.c        **** 
  25:main.c        **** #define INITIALIZATION 0
  26:main.c        **** #define IDLE 1
  27:main.c        **** #define MEASUREMENT 2
  28:main.c        **** 
  29:main.c        **** 
  30:main.c        **** uint8_t seconds = 0;
ARM GAS  C:\Users\lucac\AppData\Local\Temp\ccyai1aZ.s 			page 2


  31:main.c        **** 
  32:main.c        **** char rtc_content[64] = {};
  33:main.c        **** uint8_t rtc_data_register;
  34:main.c        **** 
  35:main.c        **** int main(void)
  36:main.c        **** {
  28              		.loc 1 36 0
  29              		.cfi_startproc
  30              		@ args = 0, pretend = 0, frame = 104
  31              		@ frame_needed = 0, uses_anonymous_args = 0
  32 0000 2DE9F04F 		push	{r4, r5, r6, r7, r8, r9, r10, fp, lr}
  33              		.cfi_def_cfa_offset 36
  34              		.cfi_offset 4, -36
  35              		.cfi_offset 5, -32
  36              		.cfi_offset 6, -28
  37              		.cfi_offset 7, -24
  38              		.cfi_offset 8, -20
  39              		.cfi_offset 9, -16
  40              		.cfi_offset 10, -12
  41              		.cfi_offset 11, -8
  42              		.cfi_offset 14, -4
  43 0004 A1B0     		sub	sp, sp, #132
  44              		.cfi_def_cfa_offset 168
  37:main.c        ****     CyDelay(1000);
  45              		.loc 1 37 0
  46 0006 4FF47A70 		mov	r0, #1000
  47 000a FFF7FEFF 		bl	CyDelay
  48              	.LVL0:
  38:main.c        ****    /* Pin_Reset_Write(0x00);
  39:main.c        ****     CyDelay(10);
  40:main.c        ****     Pin_Reset_Write(0xFF);*/
  41:main.c        ****     
  42:main.c        ****     state = 0;
  49              		.loc 1 42 0
  50 000e 0024     		movs	r4, #0
  51 0010 8C4B     		ldr	r3, .L17
  52 0012 1C70     		strb	r4, [r3]
  43:main.c        ****     CyGlobalIntEnable;
  53              		.loc 1 43 0
  54              		.syntax unified
  55              	@ 43 "main.c" 1
  56 0014 62B6     		CPSIE   i
  57              	@ 0 "" 2
  44:main.c        ****         
  45:main.c        ****     I2CMASTER_Start();
  58              		.loc 1 45 0
  59              		.thumb
  60              		.syntax unified
  61 0016 FFF7FEFF 		bl	I2CMASTER_Start
  62              	.LVL1:
  46:main.c        ****     UART_1_Start();
  63              		.loc 1 46 0
  64 001a FFF7FEFF 		bl	UART_1_Start
  65              	.LVL2:
  47:main.c        ****     
  48:main.c        ****     CyDelay(5);
  66              		.loc 1 48 0
ARM GAS  C:\Users\lucac\AppData\Local\Temp\ccyai1aZ.s 			page 3


  67 001e 0520     		movs	r0, #5
  68 0020 FFF7FEFF 		bl	CyDelay
  69              	.LVL3:
  49:main.c        **** 
  50:main.c        ****     display_init(DISPLAY_ADDRESS);
  70              		.loc 1 50 0
  71 0024 3D20     		movs	r0, #61
  72 0026 FFF7FEFF 		bl	display_init
  73              	.LVL4:
  51:main.c        ****     rtc_init(RTC_ADDRESS);
  74              		.loc 1 51 0
  75 002a 6820     		movs	r0, #104
  76 002c FFF7FEFF 		bl	rtc_init
  77              	.LVL5:
  52:main.c        ****     eeprom_current_address = 0x0000;
  78              		.loc 1 52 0
  79 0030 854B     		ldr	r3, .L17+4
  80 0032 1C80     		strh	r4, [r3]	@ movhi
  81              	.LVL6:
  53:main.c        ****     
  54:main.c        ****     /*If you want to setup the RTC, uncomment the following line and insert the needed informations
  55:main.c        ****       Seconds, Minutes, Hours, Date, Month, Year
  56:main.c        ****       Then run the program, re-comment the line and re-run the program
  57:main.c        ****     */
  58:main.c        ****     //set_RTC(0x40,0x06,0x12,0x12,MAY,Y_2022);
  59:main.c        ****     
  60:main.c        ****     uint8_t glucose_concentration = 100;
  61:main.c        ****     uint8_t glucose_concentration_from_memory = 0;
  62:main.c        ****     char flag = 0;
  63:main.c        ****     char unit[] = "mg/dl";
  64:main.c        ****     
  65:main.c        ****     int len = 0;
  66:main.c        ****     
  67:main.c        ****     uint32_t rval;
  68:main.c        ****     char message[100] = {'\0'};
  82              		.loc 1 68 0
  83 0034 6422     		movs	r2, #100
  84 0036 2146     		mov	r1, r4
  85 0038 07A8     		add	r0, sp, #28
  86 003a FFF7FEFF 		bl	memset
  87              	.LVL7:
  69:main.c        ****     
  70:main.c        ****     //display_clear();
  71:main.c        ****     UART_1_PutString("\r\n**************\r\n");
  88              		.loc 1 71 0
  89 003e 8348     		ldr	r0, .L17+8
  90 0040 FFF7FEFF 		bl	UART_1_PutString
  91              	.LVL8:
  72:main.c        ****     UART_1_PutString("** I2C Scan **\r\n");
  92              		.loc 1 72 0
  93 0044 8248     		ldr	r0, .L17+12
  94 0046 FFF7FEFF 		bl	UART_1_PutString
  95              	.LVL9:
  73:main.c        ****     UART_1_PutString("**************\r\n");
  96              		.loc 1 73 0
  97 004a 8248     		ldr	r0, .L17+16
  98 004c FFF7FEFF 		bl	UART_1_PutString
ARM GAS  C:\Users\lucac\AppData\Local\Temp\ccyai1aZ.s 			page 4


  99              	.LVL10:
  74:main.c        ****     
  75:main.c        ****     CyDelay(10);
 100              		.loc 1 75 0
 101 0050 0A20     		movs	r0, #10
 102 0052 FFF7FEFF 		bl	CyDelay
 103              	.LVL11:
  76:main.c        ****     
  77:main.c        ****     UART_1_PutString("\n\n   ");
 104              		.loc 1 77 0
 105 0056 8048     		ldr	r0, .L17+20
 106 0058 FFF7FEFF 		bl	UART_1_PutString
 107              	.LVL12:
 108              	.LBB2:
  78:main.c        **** 	for(uint8_t i = 0; i<0x10; i++)
 109              		.loc 1 78 0
 110 005c 09E0     		b	.L2
 111              	.LVL13:
 112              	.L3:
  79:main.c        **** 	{
  80:main.c        ****         sprintf(message, "%02X ", i);
 113              		.loc 1 80 0 discriminator 3
 114 005e 2246     		mov	r2, r4
 115 0060 7E49     		ldr	r1, .L17+24
 116 0062 07A8     		add	r0, sp, #28
 117 0064 FFF7FEFF 		bl	sprintf
 118              	.LVL14:
  81:main.c        **** 		UART_1_PutString(message);
 119              		.loc 1 81 0 discriminator 3
 120 0068 07A8     		add	r0, sp, #28
 121 006a FFF7FEFF 		bl	UART_1_PutString
 122              	.LVL15:
  78:main.c        **** 	for(uint8_t i = 0; i<0x10; i++)
 123              		.loc 1 78 0 discriminator 3
 124 006e 0134     		adds	r4, r4, #1
 125              	.LVL16:
 126 0070 E4B2     		uxtb	r4, r4
 127              	.LVL17:
 128              	.L2:
  78:main.c        **** 	for(uint8_t i = 0; i<0x10; i++)
 129              		.loc 1 78 0 is_stmt 0 discriminator 1
 130 0072 0F2C     		cmp	r4, #15
 131 0074 F3D9     		bls	.L3
 132 0076 0024     		movs	r4, #0
 133              	.LVL18:
 134 0078 1FE0     		b	.L4
 135              	.LVL19:
 136              	.L8:
 137              	.LBE2:
 138              	.LBB3:
  82:main.c        **** 	}
  83:main.c        ****  
  84:main.c        ****     
  85:main.c        ****     // SCAN the I2C BUS for slaves
  86:main.c        **** 	for( uint8_t i2caddress = 0; i2caddress < 0x80; i2caddress++ ) {
  87:main.c        ****         
  88:main.c        **** 		if(i2caddress % 0x10 == 0 ) {
ARM GAS  C:\Users\lucac\AppData\Local\Temp\ccyai1aZ.s 			page 5


 139              		.loc 1 88 0 is_stmt 1
 140 007a 14F00F0F 		tst	r4, #15
 141 007e 07D1     		bne	.L5
  89:main.c        ****             sprintf(message, "\n%02X ", i2caddress);
 142              		.loc 1 89 0
 143 0080 2246     		mov	r2, r4
 144 0082 7749     		ldr	r1, .L17+28
 145 0084 07A8     		add	r0, sp, #28
 146 0086 FFF7FEFF 		bl	sprintf
 147              	.LVL20:
  90:main.c        **** 		    UART_1_PutString(message);
 148              		.loc 1 90 0
 149 008a 07A8     		add	r0, sp, #28
 150 008c FFF7FEFF 		bl	UART_1_PutString
 151              	.LVL21:
 152              	.L5:
  91:main.c        ****         }
  92:main.c        ****  
  93:main.c        **** 		rval = I2CMASTER_MasterSendStart(i2caddress, I2CMASTER_WRITE_XFER_MODE);
 153              		.loc 1 93 0
 154 0090 0021     		movs	r1, #0
 155 0092 2046     		mov	r0, r4
 156 0094 FFF7FEFF 		bl	I2CMASTER_MasterSendStart
 157              	.LVL22:
  94:main.c        ****         
  95:main.c        ****         if( rval == I2CMASTER_MSTR_NO_ERROR ) // If you get ACK then print the address
 158              		.loc 1 95 0
 159 0098 40B9     		cbnz	r0, .L6
  96:main.c        **** 		{
  97:main.c        ****             sprintf(message, "%02X ", i2caddress);
 160              		.loc 1 97 0
 161 009a 2246     		mov	r2, r4
 162 009c 6F49     		ldr	r1, .L17+24
 163 009e 07A8     		add	r0, sp, #28
 164              	.LVL23:
 165 00a0 FFF7FEFF 		bl	sprintf
 166              	.LVL24:
  98:main.c        **** 		    UART_1_PutString(message);
 167              		.loc 1 98 0
 168 00a4 07A8     		add	r0, sp, #28
 169 00a6 FFF7FEFF 		bl	UART_1_PutString
 170              	.LVL25:
 171 00aa 02E0     		b	.L7
 172              	.LVL26:
 173              	.L6:
  99:main.c        **** 		}
 100:main.c        **** 		else //  Otherwise print a --
 101:main.c        **** 		{
 102:main.c        **** 		    UART_1_PutString("-- ");
 174              		.loc 1 102 0
 175 00ac 6D48     		ldr	r0, .L17+32
 176              	.LVL27:
 177 00ae FFF7FEFF 		bl	UART_1_PutString
 178              	.LVL28:
 179              	.L7:
 103:main.c        **** 		}
 104:main.c        ****         I2CMASTER_MasterSendStop();
ARM GAS  C:\Users\lucac\AppData\Local\Temp\ccyai1aZ.s 			page 6


 180              		.loc 1 104 0 discriminator 2
 181 00b2 FFF7FEFF 		bl	I2CMASTER_MasterSendStop
 182              	.LVL29:
  86:main.c        ****         
 183              		.loc 1 86 0 discriminator 2
 184 00b6 0134     		adds	r4, r4, #1
 185              	.LVL30:
 186 00b8 E4B2     		uxtb	r4, r4
 187              	.LVL31:
 188              	.L4:
  86:main.c        ****         
 189              		.loc 1 86 0 is_stmt 0 discriminator 1
 190 00ba 14F0800F 		tst	r4, #128
 191 00be DCD0     		beq	.L8
 192              	.LBE3:
 105:main.c        **** 	}
 106:main.c        **** 	UART_1_PutString("\n\n");
 193              		.loc 1 106 0 is_stmt 1
 194 00c0 6948     		ldr	r0, .L17+36
 195 00c2 FFF7FEFF 		bl	UART_1_PutString
 196              	.LVL32:
  62:main.c        ****     char unit[] = "mg/dl";
 197              		.loc 1 62 0
 198 00c6 0026     		movs	r6, #0
 199              	.LVL33:
 200              	.L10:
 107:main.c        **** 
 108:main.c        ****     for(;;)
 109:main.c        ****     {
 110:main.c        ****         switch(state) {
 201              		.loc 1 110 0
 202 00c8 5E4B     		ldr	r3, .L17
 203 00ca 1B78     		ldrb	r3, [r3]	@ zero_extendqisi2
 204 00cc 012B     		cmp	r3, #1
 205 00ce 73D0     		beq	.L11
 206 00d0 13B1     		cbz	r3, .L12
 207 00d2 022B     		cmp	r3, #2
 208 00d4 7AD0     		beq	.L13
 209 00d6 F7E7     		b	.L10
 210              	.L12:
 111:main.c        ****             case INITIALIZATION:
 112:main.c        ****                 OLED_welcome_screen();
 211              		.loc 1 112 0
 212 00d8 FFF7FEFF 		bl	OLED_welcome_screen
 213              	.LVL34:
 113:main.c        ****                 
 114:main.c        ****                 rtc_read_time(RTC_ADDRESS);
 214              		.loc 1 114 0
 215 00dc 6820     		movs	r0, #104
 216 00de FFF7FEFF 		bl	rtc_read_time
 217              	.LVL35:
 115:main.c        ****                 len = snprintf(rtc_content, sizeof(rtc_content), "Secondi: %d\r\n", current_seconds
 218              		.loc 1 115 0
 219 00e2 624D     		ldr	r5, .L17+40
 220 00e4 624C     		ldr	r4, .L17+44
 221 00e6 2B78     		ldrb	r3, [r5]	@ zero_extendqisi2
 222 00e8 624A     		ldr	r2, .L17+48
ARM GAS  C:\Users\lucac\AppData\Local\Temp\ccyai1aZ.s 			page 7


 223 00ea 4021     		movs	r1, #64
 224 00ec 2046     		mov	r0, r4
 225 00ee FFF7FEFF 		bl	snprintf
 226              	.LVL36:
 116:main.c        ****                 UART_1_PutString(rtc_content);
 227              		.loc 1 116 0
 228 00f2 2046     		mov	r0, r4
 229 00f4 FFF7FEFF 		bl	UART_1_PutString
 230              	.LVL37:
 117:main.c        ****                 len = snprintf(rtc_content, sizeof(rtc_content), "Minuti: %d\r\n", current_minutes)
 231              		.loc 1 117 0
 232 00f8 5F4F     		ldr	r7, .L17+52
 233 00fa 3B78     		ldrb	r3, [r7]	@ zero_extendqisi2
 234 00fc 5F4A     		ldr	r2, .L17+56
 235 00fe 4021     		movs	r1, #64
 236 0100 2046     		mov	r0, r4
 237 0102 FFF7FEFF 		bl	snprintf
 238              	.LVL38:
 118:main.c        ****                 UART_1_PutString(rtc_content);
 239              		.loc 1 118 0
 240 0106 2046     		mov	r0, r4
 241 0108 FFF7FEFF 		bl	UART_1_PutString
 242              	.LVL39:
 119:main.c        ****                 len = snprintf(rtc_content, sizeof(rtc_content), "Ore: %d\r\n", current_hours);
 243              		.loc 1 119 0
 244 010c DFF89481 		ldr	r8, .L17+96
 245 0110 98F80030 		ldrb	r3, [r8]	@ zero_extendqisi2
 246 0114 5A4A     		ldr	r2, .L17+60
 247 0116 4021     		movs	r1, #64
 248 0118 2046     		mov	r0, r4
 249 011a FFF7FEFF 		bl	snprintf
 250              	.LVL40:
 120:main.c        ****                 UART_1_PutString(rtc_content);
 251              		.loc 1 120 0
 252 011e 2046     		mov	r0, r4
 253 0120 FFF7FEFF 		bl	UART_1_PutString
 254              	.LVL41:
 121:main.c        ****                 len = snprintf(rtc_content, sizeof(rtc_content), "Giorno: %d\r\n", current_date);
 255              		.loc 1 121 0
 256 0124 DFF870B1 		ldr	fp, .L17+84
 257 0128 9BF80030 		ldrb	r3, [fp]	@ zero_extendqisi2
 258 012c 554A     		ldr	r2, .L17+64
 259 012e 4021     		movs	r1, #64
 260 0130 2046     		mov	r0, r4
 261 0132 FFF7FEFF 		bl	snprintf
 262              	.LVL42:
 122:main.c        ****                 UART_1_PutString(rtc_content);
 263              		.loc 1 122 0
 264 0136 2046     		mov	r0, r4
 265 0138 FFF7FEFF 		bl	UART_1_PutString
 266              	.LVL43:
 123:main.c        ****                 len = snprintf(rtc_content, sizeof(rtc_content), "Mese: %d\r\n", current_month);
 267              		.loc 1 123 0
 268 013c DFF85CA1 		ldr	r10, .L17+88
 269 0140 9AF80030 		ldrb	r3, [r10]	@ zero_extendqisi2
 270 0144 504A     		ldr	r2, .L17+68
 271 0146 4021     		movs	r1, #64
ARM GAS  C:\Users\lucac\AppData\Local\Temp\ccyai1aZ.s 			page 8


 272 0148 2046     		mov	r0, r4
 273 014a FFF7FEFF 		bl	snprintf
 274              	.LVL44:
 124:main.c        ****                 UART_1_PutString(rtc_content);
 275              		.loc 1 124 0
 276 014e 2046     		mov	r0, r4
 277 0150 FFF7FEFF 		bl	UART_1_PutString
 278              	.LVL45:
 125:main.c        ****                 len = snprintf(rtc_content, sizeof(rtc_content), "Anno: %d\r\n\n", current_year);
 279              		.loc 1 125 0
 280 0154 DFF84891 		ldr	r9, .L17+92
 281 0158 B9F80030 		ldrh	r3, [r9]
 282 015c 4B4A     		ldr	r2, .L17+72
 283 015e 4021     		movs	r1, #64
 284 0160 2046     		mov	r0, r4
 285 0162 FFF7FEFF 		bl	snprintf
 286              	.LVL46:
 126:main.c        ****                 UART_1_PutString(rtc_content);
 287              		.loc 1 126 0
 288 0166 2046     		mov	r0, r4
 289 0168 FFF7FEFF 		bl	UART_1_PutString
 290              	.LVL47:
 127:main.c        ****                 
 128:main.c        ****                 len = snprintf(rtc_content, sizeof(rtc_content), "%d-%d-%d %02d:%02d:%02d\n", curre
 291              		.loc 1 128 0
 292 016c 9BF80030 		ldrb	r3, [fp]	@ zero_extendqisi2
 293 0170 9AF80020 		ldrb	r2, [r10]	@ zero_extendqisi2
 294 0174 B9F80010 		ldrh	r1, [r9]
 295 0178 98F80000 		ldrb	r0, [r8]	@ zero_extendqisi2
 296 017c 3F78     		ldrb	r7, [r7]	@ zero_extendqisi2
 297 017e 2D78     		ldrb	r5, [r5]	@ zero_extendqisi2
 298 0180 0495     		str	r5, [sp, #16]
 299 0182 0397     		str	r7, [sp, #12]
 300 0184 0290     		str	r0, [sp, #8]
 301 0186 0191     		str	r1, [sp, #4]
 302 0188 0092     		str	r2, [sp]
 303 018a 414A     		ldr	r2, .L17+76
 304 018c 4021     		movs	r1, #64
 305 018e 2046     		mov	r0, r4
 306 0190 FFF7FEFF 		bl	snprintf
 307              	.LVL48:
 129:main.c        ****                                current_month, current_year, current_hours, current_minutes, current
 130:main.c        ****                 UART_1_PutString(rtc_content);
 308              		.loc 1 130 0
 309 0194 2046     		mov	r0, r4
 310 0196 FFF7FEFF 		bl	UART_1_PutString
 311              	.LVL49:
 131:main.c        ****                 
 132:main.c        ****                 if(flag == 0) {
 312              		.loc 1 132 0
 313 019a 4EB9     		cbnz	r6, .L14
 314              	.LVL50:
 133:main.c        ****                     flag = 1;
 134:main.c        ****                     save_current_measurement(glucose_concentration);
 315              		.loc 1 134 0
 316 019c 6420     		movs	r0, #100
 317 019e FFF7FEFF 		bl	save_current_measurement
ARM GAS  C:\Users\lucac\AppData\Local\Temp\ccyai1aZ.s 			page 9


 318              	.LVL51:
 135:main.c        ****                     glucose_concentration_from_memory = get_measurement_from_memory(eeprom_current_
 319              		.loc 1 135 0
 320 01a2 294B     		ldr	r3, .L17+4
 321 01a4 1888     		ldrh	r0, [r3]
 322 01a6 0738     		subs	r0, r0, #7
 323 01a8 80B2     		uxth	r0, r0
 324 01aa FFF7FEFF 		bl	get_measurement_from_memory
 325              	.LVL52:
 133:main.c        ****                     flag = 1;
 326              		.loc 1 133 0
 327 01ae 0126     		movs	r6, #1
 328              	.LVL53:
 329              	.L14:
 136:main.c        ****                 }
 137:main.c        **** 
 138:main.c        ****                 
 139:main.c        ****                 /*display_clear();
 140:main.c        ****                 display_update();
 141:main.c        ****                 rtx_setTextSize(1);
 142:main.c        ****                 rtx_setTextColor(WHITE);
 143:main.c        ****                 rtx_setCursor(0,0);
 144:main.c        ****                 rtx_println(rtc_content);
 145:main.c        ****                 display_update();
 146:main.c        ****                 
 147:main.c        ****                 CyDelay(2000);*/
 148:main.c        ****                 
 149:main.c        ****                 state = IDLE;
 330              		.loc 1 149 0
 331 01b0 0122     		movs	r2, #1
 332 01b2 244B     		ldr	r3, .L17
 333 01b4 1A70     		strb	r2, [r3]
 150:main.c        ****             
 151:main.c        ****             break;
 334              		.loc 1 151 0
 335 01b6 87E7     		b	.L10
 336              	.L11:
 152:main.c        ****             
 153:main.c        ****             case IDLE:
 154:main.c        ****                 button_state = Pin_Button_Read();
 337              		.loc 1 154 0
 338 01b8 FFF7FEFF 		bl	Pin_Button_Read
 339              	.LVL54:
 340 01bc 354B     		ldr	r3, .L17+80
 341 01be 1870     		strb	r0, [r3]
 155:main.c        ****                 //len = snprintf(message, sizeof(message), "%d\n", button_state);
 156:main.c        ****                 //UART_1_PutString(message);
 157:main.c        ****                 if(!button_state) {
 342              		.loc 1 157 0
 343 01c0 0028     		cmp	r0, #0
 344 01c2 81D1     		bne	.L10
 158:main.c        ****                     state = MEASUREMENT;
 345              		.loc 1 158 0
 346 01c4 0222     		movs	r2, #2
 347 01c6 1F4B     		ldr	r3, .L17
 348 01c8 1A70     		strb	r2, [r3]
 349 01ca 7DE7     		b	.L10
ARM GAS  C:\Users\lucac\AppData\Local\Temp\ccyai1aZ.s 			page 10


 350              	.L13:
 159:main.c        ****                 }   
 160:main.c        ****             
 161:main.c        ****             break;
 162:main.c        ****             
 163:main.c        ****             case MEASUREMENT:
 164:main.c        ****                 rtc_read_time(RTC_ADDRESS);
 351              		.loc 1 164 0
 352 01cc 6820     		movs	r0, #104
 353 01ce FFF7FEFF 		bl	rtc_read_time
 354              	.LVL55:
 165:main.c        ****                 len = snprintf(rtc_content, sizeof(rtc_content), "%d-%d-%d %02d:%02d:%02d\n", curre
 355              		.loc 1 165 0
 356 01d2 314B     		ldr	r3, .L17+84
 357 01d4 1B78     		ldrb	r3, [r3]	@ zero_extendqisi2
 358 01d6 314A     		ldr	r2, .L17+88
 359 01d8 1278     		ldrb	r2, [r2]	@ zero_extendqisi2
 360 01da 3149     		ldr	r1, .L17+92
 361 01dc 0988     		ldrh	r1, [r1]
 362 01de 3148     		ldr	r0, .L17+96
 363 01e0 0078     		ldrb	r0, [r0]	@ zero_extendqisi2
 364 01e2 254C     		ldr	r4, .L17+52
 365 01e4 2578     		ldrb	r5, [r4]	@ zero_extendqisi2
 366 01e6 214C     		ldr	r4, .L17+40
 367 01e8 2778     		ldrb	r7, [r4]	@ zero_extendqisi2
 368 01ea 214C     		ldr	r4, .L17+44
 369 01ec 0497     		str	r7, [sp, #16]
 370 01ee 0395     		str	r5, [sp, #12]
 371 01f0 0290     		str	r0, [sp, #8]
 372 01f2 0191     		str	r1, [sp, #4]
 373 01f4 0092     		str	r2, [sp]
 374 01f6 264A     		ldr	r2, .L17+76
 375 01f8 4021     		movs	r1, #64
 376 01fa 2046     		mov	r0, r4
 377 01fc FFF7FEFF 		bl	snprintf
 378              	.LVL56:
 166:main.c        ****                                current_month, current_year, current_hours, current_minutes, current
 167:main.c        ****                 display_clear();
 379              		.loc 1 167 0
 380 0200 FFF7FEFF 		bl	display_clear
 381              	.LVL57:
 168:main.c        ****                 display_update();
 382              		.loc 1 168 0
 383 0204 FFF7FEFF 		bl	display_update
 384              	.LVL58:
 169:main.c        ****                 rtx_setTextSize(1);
 385              		.loc 1 169 0
 386 0208 0120     		movs	r0, #1
 387 020a FFF7FEFF 		bl	rtx_setTextSize
 388              	.LVL59:
 170:main.c        ****                 rtx_setTextColor(WHITE);
 389              		.loc 1 170 0
 390 020e 0120     		movs	r0, #1
 391 0210 FFF7FEFF 		bl	rtx_setTextColor
 392              	.LVL60:
 171:main.c        ****                 rtx_setCursor(0,0);
 393              		.loc 1 171 0
ARM GAS  C:\Users\lucac\AppData\Local\Temp\ccyai1aZ.s 			page 11


 394 0214 0021     		movs	r1, #0
 395 0216 0846     		mov	r0, r1
 396 0218 FFF7FEFF 		bl	rtx_setCursor
 397              	.LVL61:
 172:main.c        ****                 rtx_println(rtc_content);
 398              		.loc 1 172 0
 399 021c 2046     		mov	r0, r4
 400 021e FFF7FEFF 		bl	rtx_println
 401              	.LVL62:
 173:main.c        ****                 display_update();
 402              		.loc 1 173 0
 403 0222 FFF7FEFF 		bl	display_update
 404              	.LVL63:
 174:main.c        ****                 
 175:main.c        ****                 button_state = Pin_Button_Read();
 405              		.loc 1 175 0
 406 0226 FFF7FEFF 		bl	Pin_Button_Read
 407              	.LVL64:
 408 022a 0346     		mov	r3, r0
 409 022c 194A     		ldr	r2, .L17+80
 410 022e 1070     		strb	r0, [r2]
 176:main.c        ****                 len = snprintf(message, sizeof(message), "%d\n", button_state);
 411              		.loc 1 176 0
 412 0230 1D4A     		ldr	r2, .L17+100
 413 0232 6421     		movs	r1, #100
 414 0234 07A8     		add	r0, sp, #28
 415 0236 FFF7FEFF 		bl	snprintf
 416              	.LVL65:
 177:main.c        ****                 UART_1_PutString(message);
 417              		.loc 1 177 0
 418 023a 07A8     		add	r0, sp, #28
 419 023c FFF7FEFF 		bl	UART_1_PutString
 420              	.LVL66:
 178:main.c        ****             
 179:main.c        ****             break;
 421              		.loc 1 179 0
 422 0240 42E7     		b	.L10
 423              	.L18:
 424 0242 00BF     		.align	2
 425              	.L17:
 426 0244 00000000 		.word	state
 427 0248 00000000 		.word	eeprom_current_address
 428 024c 00000000 		.word	.LC0
 429 0250 14000000 		.word	.LC1
 430 0254 28000000 		.word	.LC2
 431 0258 3C000000 		.word	.LC3
 432 025c 44000000 		.word	.LC4
 433 0260 4C000000 		.word	.LC5
 434 0264 54000000 		.word	.LC6
 435 0268 58000000 		.word	.LC7
 436 026c 00000000 		.word	current_seconds
 437 0270 00000000 		.word	.LANCHOR0
 438 0274 5C000000 		.word	.LC8
 439 0278 00000000 		.word	current_minutes
 440 027c 6C000000 		.word	.LC9
 441 0280 7C000000 		.word	.LC10
 442 0284 88000000 		.word	.LC11
ARM GAS  C:\Users\lucac\AppData\Local\Temp\ccyai1aZ.s 			page 12


 443 0288 98000000 		.word	.LC12
 444 028c A4000000 		.word	.LC13
 445 0290 B0000000 		.word	.LC14
 446 0294 00000000 		.word	button_state
 447 0298 00000000 		.word	current_date
 448 029c 00000000 		.word	current_month
 449 02a0 00000000 		.word	current_year
 450 02a4 00000000 		.word	current_hours
 451 02a8 CC000000 		.word	.LC15
 452              		.cfi_endproc
 453              	.LFE64:
 454              		.size	main, .-main
 455              		.comm	rtc_data_register,1,1
 456              		.global	rtc_content
 457              		.global	seconds
 458              		.comm	Current_time,8,4
 459              		.comm	textbgcolor,2,2
 460              		.comm	textcolor,2,2
 461              		.comm	rotation,1,1
 462              		.comm	wrap,1,1
 463              		.comm	textsize,1,1
 464              		.comm	cursor_y,2,2
 465              		.comm	cursor_x,2,2
 466              		.comm	eeprom_current_address,2,2
 467              		.comm	current_year,2,2
 468              		.comm	current_month,1,1
 469              		.comm	current_date,1,1
 470              		.comm	current_hours,1,1
 471              		.comm	current_minutes,1,1
 472              		.comm	current_seconds,1,1
 473              		.comm	button_state,1,1
 474              		.comm	state,1,1
 475              		.section	.rodata.str1.4,"aMS",%progbits,1
 476              		.align	2
 477              	.LC0:
 478 0000 0D0A2A2A 		.ascii	"\015\012**************\015\012\000"
 478      2A2A2A2A 
 478      2A2A2A2A 
 478      2A2A2A2A 
 478      0D0A00
 479 0013 00       		.space	1
 480              	.LC1:
 481 0014 2A2A2049 		.ascii	"** I2C Scan **\015\012\000"
 481      32432053 
 481      63616E20 
 481      2A2A0D0A 
 481      00
 482 0025 000000   		.space	3
 483              	.LC2:
 484 0028 2A2A2A2A 		.ascii	"**************\015\012\000"
 484      2A2A2A2A 
 484      2A2A2A2A 
 484      2A2A0D0A 
 484      00
 485 0039 000000   		.space	3
 486              	.LC3:
 487 003c 0A0A2020 		.ascii	"\012\012   \000"
ARM GAS  C:\Users\lucac\AppData\Local\Temp\ccyai1aZ.s 			page 13


 487      2000
 488 0042 0000     		.space	2
 489              	.LC4:
 490 0044 25303258 		.ascii	"%02X \000"
 490      2000
 491 004a 0000     		.space	2
 492              	.LC5:
 493 004c 0A253032 		.ascii	"\012%02X \000"
 493      582000
 494 0053 00       		.space	1
 495              	.LC6:
 496 0054 2D2D2000 		.ascii	"-- \000"
 497              	.LC7:
 498 0058 0A0A00   		.ascii	"\012\012\000"
 499 005b 00       		.space	1
 500              	.LC8:
 501 005c 5365636F 		.ascii	"Secondi: %d\015\012\000"
 501      6E64693A 
 501      2025640D 
 501      0A00
 502 006a 0000     		.space	2
 503              	.LC9:
 504 006c 4D696E75 		.ascii	"Minuti: %d\015\012\000"
 504      74693A20 
 504      25640D0A 
 504      00
 505 0079 000000   		.space	3
 506              	.LC10:
 507 007c 4F72653A 		.ascii	"Ore: %d\015\012\000"
 507      2025640D 
 507      0A00
 508 0086 0000     		.space	2
 509              	.LC11:
 510 0088 47696F72 		.ascii	"Giorno: %d\015\012\000"
 510      6E6F3A20 
 510      25640D0A 
 510      00
 511 0095 000000   		.space	3
 512              	.LC12:
 513 0098 4D657365 		.ascii	"Mese: %d\015\012\000"
 513      3A202564 
 513      0D0A00
 514 00a3 00       		.space	1
 515              	.LC13:
 516 00a4 416E6E6F 		.ascii	"Anno: %d\015\012\012\000"
 516      3A202564 
 516      0D0A0A00 
 517              	.LC14:
 518 00b0 25642D25 		.ascii	"%d-%d-%d %02d:%02d:%02d\012\000"
 518      642D2564 
 518      20253032 
 518      643A2530 
 518      32643A25 
 519 00c9 000000   		.space	3
 520              	.LC15:
 521 00cc 25640A00 		.ascii	"%d\012\000"
 522              		.bss
ARM GAS  C:\Users\lucac\AppData\Local\Temp\ccyai1aZ.s 			page 14


 523              		.align	2
 524              		.set	.LANCHOR0,. + 0
 525              		.type	rtc_content, %object
 526              		.size	rtc_content, 64
 527              	rtc_content:
 528 0000 00000000 		.space	64
 528      00000000 
 528      00000000 
 528      00000000 
 528      00000000 
 529              		.type	seconds, %object
 530              		.size	seconds, 1
 531              	seconds:
 532 0040 00       		.space	1
 533              		.text
 534              	.Letext0:
 535              		.file 2 "c:\\program files (x86)\\cypress\\psoc creator\\4.4\\psoc creator\\import\\gnu\\arm\\5.4.
 536              		.file 3 "c:\\program files (x86)\\cypress\\psoc creator\\4.4\\psoc creator\\import\\gnu\\arm\\5.4.
 537              		.file 4 "Generated_Source\\PSoC5/cytypes.h"
 538              		.file 5 "Generated_Source\\PSoC5/core_cm3.h"
 539              		.file 6 "Globals.h"
 540              		.file 7 "OLED_Driver.h"
 541              		.file 8 "RTC_Driver.h"
 542              		.file 9 "c:\\program files (x86)\\cypress\\psoc creator\\4.4\\psoc creator\\import\\gnu\\arm\\5.4.
 543              		.file 10 "Generated_Source\\PSoC5/UART_1.h"
 544              		.file 11 "Generated_Source\\PSoC5/I2CMASTER.h"
 545              		.file 12 "Generated_Source\\PSoC5/CyLib.h"
 546              		.file 13 "EEPROM_Driver.h"
 547              		.file 14 "Generated_Source\\PSoC5/Pin_Button.h"