ARM GAS  C:\Users\lucac\AppData\Local\Temp\ccXGXCNJ.s 			page 1


   1              		.syntax unified
   2              		.cpu cortex-m3
   3              		.fpu softvfp
   4              		.eabi_attribute 20, 1
   5              		.eabi_attribute 21, 1
   6              		.eabi_attribute 23, 3
   7              		.eabi_attribute 24, 1
   8              		.eabi_attribute 25, 1
   9              		.eabi_attribute 26, 1
  10              		.eabi_attribute 30, 1
  11              		.eabi_attribute 34, 1
  12              		.eabi_attribute 18, 4
  13              		.thumb
  14              		.syntax unified
  15              		.file	"RTC_Driver.c"
  16              		.text
  17              	.Ltext0:
  18              		.cfi_sections	.debug_frame
  19              		.section	.text.rtc_init,"ax",%progbits
  20              		.align	2
  21              		.global	rtc_init
  22              		.thumb
  23              		.thumb_func
  24              		.type	rtc_init, %function
  25              	rtc_init:
  26              	.LFB64:
  27              		.file 1 "RTC_Driver.c"
   1:RTC_Driver.c  **** /* ========================================================================
   2:RTC_Driver.c  ****  *
   3:RTC_Driver.c  ****  * ELECTRONIC TECHNOLOGIES AND BIOSENSORS LABORATORY
   4:RTC_Driver.c  ****  * Academic year 2021/22, II Semester
   5:RTC_Driver.c  ****  * Final Project
   6:RTC_Driver.c  **** 
   7:RTC_Driver.c  ****  * Authors: Group 2
   8:RTC_Driver.c  ****  *
   9:RTC_Driver.c  ****  * ------------------------- RTC Driver (source) --------------------------
  10:RTC_Driver.c  ****  * 
  11:RTC_Driver.c  ****  * ------------------------------------------------------------------------
  12:RTC_Driver.c  ****  * 
  13:RTC_Driver.c  ****  * ========================================================================
  14:RTC_Driver.c  **** */
  15:RTC_Driver.c  **** 
  16:RTC_Driver.c  **** #include <project.h>
  17:RTC_Driver.c  **** #include <stdlib.h>
  18:RTC_Driver.c  **** #include <math.h>
  19:RTC_Driver.c  **** 
  20:RTC_Driver.c  **** #include "RTC_Driver.h"
  21:RTC_Driver.c  **** #include "ErrorCodes.h"
  22:RTC_Driver.c  **** 
  23:RTC_Driver.c  **** /*------------------------------------------------------------------------
  24:RTC_Driver.c  **** *                       STATIC VARIABLES DECLARATION
  25:RTC_Driver.c  **** -------------------------------------------------------------------------*/
  26:RTC_Driver.c  **** static uint8_t rtc_i2c_address;
  27:RTC_Driver.c  **** 
  28:RTC_Driver.c  **** /*------------------------------------------------------------------------
  29:RTC_Driver.c  **** *                       FUNCTIONS IMPLEMENTATION
  30:RTC_Driver.c  **** -------------------------------------------------------------------------*/
ARM GAS  C:\Users\lucac\AppData\Local\Temp\ccXGXCNJ.s 			page 2


  31:RTC_Driver.c  **** /*  RTC SET UP
  32:RTC_Driver.c  **** *   \brief: Function that, given the user-inserted values, sets the RTC.
  33:RTC_Driver.c  **** *   \Parameters:
  34:RTC_Driver.c  **** *       @param current_seconds: real time seconds
  35:RTC_Driver.c  **** *       @param current_minutes: real time minutes
  36:RTC_Driver.c  **** *       @param current_hours: real time hours
  37:RTC_Driver.c  **** *       @param current_date: real time date
  38:RTC_Driver.c  **** *       @param current_month: real time month
  39:RTC_Driver.c  **** *       @param current_year: real time year
  40:RTC_Driver.c  **** *   \Return: NONE
  41:RTC_Driver.c  **** */
  42:RTC_Driver.c  **** void set_RTC(uint8_t current_seconds, uint8_t current_minutes, uint8_t current_hours, uint8_t curre
  43:RTC_Driver.c  ****              uint8_t current_month, uint8_t current_year) {
  44:RTC_Driver.c  ****     
  45:RTC_Driver.c  ****     ErrorCode error = RTC_WriteRegister(RTC_ADDRESS, RTC_SECONDS, current_seconds);
  46:RTC_Driver.c  ****     if(error == ERROR) {
  47:RTC_Driver.c  ****         UART_1_PutString("Error in setting the RTC seconds");
  48:RTC_Driver.c  ****     }
  49:RTC_Driver.c  ****     
  50:RTC_Driver.c  ****     error = RTC_WriteRegister(RTC_ADDRESS, RTC_MINUTES, current_minutes);
  51:RTC_Driver.c  ****     if(error == ERROR) {
  52:RTC_Driver.c  ****         UART_1_PutString("Error in setting the RTC minutes");
  53:RTC_Driver.c  ****     }
  54:RTC_Driver.c  ****     
  55:RTC_Driver.c  ****     error = RTC_WriteRegister(RTC_ADDRESS, RTC_HOURS, current_hours);
  56:RTC_Driver.c  ****     if(error == ERROR) {
  57:RTC_Driver.c  ****         UART_1_PutString("Error in setting the RTC hours");
  58:RTC_Driver.c  ****     }
  59:RTC_Driver.c  ****     
  60:RTC_Driver.c  ****     error = RTC_WriteRegister(RTC_ADDRESS, RTC_DATE, current_date);
  61:RTC_Driver.c  ****     if(error == ERROR) {
  62:RTC_Driver.c  ****         UART_1_PutString("Error in setting the RTC date");
  63:RTC_Driver.c  ****     }
  64:RTC_Driver.c  ****     
  65:RTC_Driver.c  ****     error = RTC_WriteRegister(RTC_ADDRESS, RTC_MONTH, current_month);
  66:RTC_Driver.c  ****     if(error == ERROR) {
  67:RTC_Driver.c  ****         UART_1_PutString("Error in setting the RTC month");
  68:RTC_Driver.c  ****     }
  69:RTC_Driver.c  ****     
  70:RTC_Driver.c  ****     error = RTC_WriteRegister(RTC_ADDRESS, RTC_YEAR, current_year);
  71:RTC_Driver.c  ****     if(error == ERROR) {
  72:RTC_Driver.c  ****         UART_1_PutString("Error in setting the RTC year");
  73:RTC_Driver.c  ****     }               
  74:RTC_Driver.c  ****  }
  75:RTC_Driver.c  **** 
  76:RTC_Driver.c  **** /*  RTC INIT
  77:RTC_Driver.c  **** *   \brief: Function that initializes the pheripheral
  78:RTC_Driver.c  **** *   \Parameters:
  79:RTC_Driver.c  **** *       @param rtc_address: I2C RTC slave address
  80:RTC_Driver.c  **** *   \Return: NONE
  81:RTC_Driver.c  **** */
  82:RTC_Driver.c  **** void rtc_init(uint8_t rtc_address) {
  28              		.loc 1 82 0
  29              		.cfi_startproc
  30              		@ args = 0, pretend = 0, frame = 0
  31              		@ frame_needed = 0, uses_anonymous_args = 0
  32              		@ link register save eliminated.
ARM GAS  C:\Users\lucac\AppData\Local\Temp\ccXGXCNJ.s 			page 3


  33              	.LVL0:
  34 0000 7047     		bx	lr
  35              		.cfi_endproc
  36              	.LFE64:
  37              		.size	rtc_init, .-rtc_init
  38 0002 00BF     		.section	.text.RTC_ReadRegister,"ax",%progbits
  39              		.align	2
  40              		.global	RTC_ReadRegister
  41              		.thumb
  42              		.thumb_func
  43              		.type	RTC_ReadRegister, %function
  44              	RTC_ReadRegister:
  45              	.LFB65:
  83:RTC_Driver.c  ****     
  84:RTC_Driver.c  ****     rtc_i2c_address = rtc_address;
  85:RTC_Driver.c  **** }
  86:RTC_Driver.c  **** 
  87:RTC_Driver.c  **** /*  RTC READ REGISTER
  88:RTC_Driver.c  **** *   \brief: Function that reads slave register content
  89:RTC_Driver.c  **** *   \Parameters:
  90:RTC_Driver.c  **** *       @param device_address: 8-bit slave device address
  91:RTC_Driver.c  **** *       @param register_address: 8-bit address of the register where content is stored
  92:RTC_Driver.c  **** *       @param data: pointer to array where to store read value
  93:RTC_Driver.c  **** *   \Return: error (if reading is successfull or not)
  94:RTC_Driver.c  **** */
  95:RTC_Driver.c  **** ErrorCode RTC_ReadRegister(uint8_t device_address, uint8_t register_address, uint8_t* data) {
  46              		.loc 1 95 0
  47              		.cfi_startproc
  48              		@ args = 0, pretend = 0, frame = 0
  49              		@ frame_needed = 0, uses_anonymous_args = 0
  50              	.LVL1:
  51              		.loc 1 95 0
  52 0000 F8B5     		push	{r3, r4, r5, r6, r7, lr}
  53              		.cfi_def_cfa_offset 24
  54              		.cfi_offset 3, -24
  55              		.cfi_offset 4, -20
  56              		.cfi_offset 5, -16
  57              		.cfi_offset 6, -12
  58              		.cfi_offset 7, -8
  59              		.cfi_offset 14, -4
  60 0002 0646     		mov	r6, r0
  61 0004 0D46     		mov	r5, r1
  62 0006 1746     		mov	r7, r2
  96:RTC_Driver.c  ****     
  97:RTC_Driver.c  ****     // Start Condition: we pass the macro I2C_Master_WRITE_XFER_MODE embedded in the API to write i
  98:RTC_Driver.c  ****     //The function returns an ACK or NACK.
  99:RTC_Driver.c  ****     uint8_t error = I2COLED_MasterSendStart(device_address, I2COLED_WRITE_XFER_MODE);              
  63              		.loc 1 99 0
  64 0008 0021     		movs	r1, #0
  65              	.LVL2:
  66 000a FFF7FEFF 		bl	I2COLED_MasterSendStart
  67              	.LVL3:
 100:RTC_Driver.c  ****     if (error == I2COLED_MSTR_NO_ERROR)
  68              		.loc 1 100 0
  69 000e 0446     		mov	r4, r0
  70 0010 68B9     		cbnz	r0, .L3
 101:RTC_Driver.c  ****     {
ARM GAS  C:\Users\lucac\AppData\Local\Temp\ccXGXCNJ.s 			page 4


 102:RTC_Driver.c  ****         //Write the register address to be read
 103:RTC_Driver.c  ****         error = I2COLED_MasterWriteByte(register_address);
  71              		.loc 1 103 0
  72 0012 2846     		mov	r0, r5
  73              	.LVL4:
  74 0014 FFF7FEFF 		bl	I2COLED_MasterWriteByte
  75              	.LVL5:
 104:RTC_Driver.c  ****         if (error == I2COLED_MSTR_NO_ERROR)
  76              		.loc 1 104 0
  77 0018 0446     		mov	r4, r0
  78 001a 40B9     		cbnz	r0, .L3
 105:RTC_Driver.c  ****         {
 106:RTC_Driver.c  ****             // Send a restart condition: this function is like r 08 x p put in the bridge control p
 107:RTC_Driver.c  ****             error = I2COLED_MasterSendRestart(device_address, I2COLED_READ_XFER_MODE);
  79              		.loc 1 107 0
  80 001c 0121     		movs	r1, #1
  81 001e 3046     		mov	r0, r6
  82              	.LVL6:
  83 0020 FFF7FEFF 		bl	I2COLED_MasterSendRestart
  84              	.LVL7:
 108:RTC_Driver.c  ****             if (error == I2COLED_MSTR_NO_ERROR)
  85              		.loc 1 108 0
  86 0024 0446     		mov	r4, r0
  87 0026 10B9     		cbnz	r0, .L3
 109:RTC_Driver.c  ****             {
 110:RTC_Driver.c  ****                 *data = I2COLED_MasterReadByte(I2COLED_NAK_DATA); //The NACK is needed otherwise th
  88              		.loc 1 110 0
  89 0028 FFF7FEFF 		bl	I2COLED_MasterReadByte
  90              	.LVL8:
  91 002c 3870     		strb	r0, [r7]
  92              	.L3:
  93              	.LVL9:
 111:RTC_Driver.c  ****             }
 112:RTC_Driver.c  ****         }
 113:RTC_Driver.c  ****     }
 114:RTC_Driver.c  ****     // Stop Comunication
 115:RTC_Driver.c  ****     I2COLED_MasterSendStop();
  94              		.loc 1 115 0
  95 002e FFF7FEFF 		bl	I2COLED_MasterSendStop
  96              	.LVL10:
 116:RTC_Driver.c  ****     //Return
 117:RTC_Driver.c  ****     return error ? ERROR : NO_ERROR;   
 118:RTC_Driver.c  **** }
  97              		.loc 1 118 0
  98 0032 201C     		adds	r0, r4, #0
  99 0034 18BF     		it	ne
 100 0036 0120     		movne	r0, #1
 101 0038 F8BD     		pop	{r3, r4, r5, r6, r7, pc}
 102              		.cfi_endproc
 103              	.LFE65:
 104              		.size	RTC_ReadRegister, .-RTC_ReadRegister
 105 003a 00BF     		.section	.text.RTC_WriteRegister,"ax",%progbits
 106              		.align	2
 107              		.global	RTC_WriteRegister
 108              		.thumb
 109              		.thumb_func
 110              		.type	RTC_WriteRegister, %function
ARM GAS  C:\Users\lucac\AppData\Local\Temp\ccXGXCNJ.s 			page 5


 111              	RTC_WriteRegister:
 112              	.LFB66:
 119:RTC_Driver.c  **** 
 120:RTC_Driver.c  **** /*  RTC WRITE REGISTER
 121:RTC_Driver.c  **** *   \brief: Function that sets slave register content
 122:RTC_Driver.c  **** *   \Parameters:
 123:RTC_Driver.c  **** *       @param device_address: 8-bit slave device address
 124:RTC_Driver.c  **** *       @param register_address: 8-bit address of the register where content has to be written
 125:RTC_Driver.c  **** *       @param data: pointer to array containing values to be written
 126:RTC_Driver.c  **** *   \Return: error (if reading is successfull or not)
 127:RTC_Driver.c  **** */
 128:RTC_Driver.c  **** ErrorCode RTC_WriteRegister(uint8_t device_address, uint8_t register_address, uint8_t data) {
 113              		.loc 1 128 0
 114              		.cfi_startproc
 115              		@ args = 0, pretend = 0, frame = 0
 116              		@ frame_needed = 0, uses_anonymous_args = 0
 117              	.LVL11:
 118 0000 70B5     		push	{r4, r5, r6, lr}
 119              		.cfi_def_cfa_offset 16
 120              		.cfi_offset 4, -16
 121              		.cfi_offset 5, -12
 122              		.cfi_offset 6, -8
 123              		.cfi_offset 14, -4
 124 0002 0D46     		mov	r5, r1
 125 0004 1646     		mov	r6, r2
 129:RTC_Driver.c  ****                                         
 130:RTC_Driver.c  ****     uint8_t error = I2COLED_MasterSendStart(device_address, I2COLED_WRITE_XFER_MODE);
 126              		.loc 1 130 0
 127 0006 0021     		movs	r1, #0
 128              	.LVL12:
 129 0008 FFF7FEFF 		bl	I2COLED_MasterSendStart
 130              	.LVL13:
 131:RTC_Driver.c  ****     if (error == I2COLED_MSTR_NO_ERROR)
 131              		.loc 1 131 0
 132 000c 0446     		mov	r4, r0
 133 000e 40B9     		cbnz	r0, .L6
 132:RTC_Driver.c  ****     {
 133:RTC_Driver.c  ****         // Write Register Address (to be overwritten)
 134:RTC_Driver.c  ****         error = I2COLED_MasterWriteByte(register_address);
 134              		.loc 1 134 0
 135 0010 2846     		mov	r0, r5
 136              	.LVL14:
 137 0012 FFF7FEFF 		bl	I2COLED_MasterWriteByte
 138              	.LVL15:
 135:RTC_Driver.c  ****         if (error == I2COLED_MSTR_NO_ERROR)
 139              		.loc 1 135 0
 140 0016 0446     		mov	r4, r0
 141 0018 18B9     		cbnz	r0, .L6
 136:RTC_Driver.c  ****         {
 137:RTC_Driver.c  ****             // Write Byte
 138:RTC_Driver.c  ****             error = I2COLED_MasterWriteByte(data);
 142              		.loc 1 138 0
 143 001a 3046     		mov	r0, r6
 144              	.LVL16:
 145 001c FFF7FEFF 		bl	I2COLED_MasterWriteByte
 146              	.LVL17:
 147 0020 0446     		mov	r4, r0
ARM GAS  C:\Users\lucac\AppData\Local\Temp\ccXGXCNJ.s 			page 6


 148              	.LVL18:
 149              	.L6:
 139:RTC_Driver.c  ****         }
 140:RTC_Driver.c  ****     }
 141:RTC_Driver.c  ****     // Close Communication
 142:RTC_Driver.c  ****     I2COLED_MasterSendStop();
 150              		.loc 1 142 0
 151 0022 FFF7FEFF 		bl	I2COLED_MasterSendStop
 152              	.LVL19:
 143:RTC_Driver.c  ****     // Return
 144:RTC_Driver.c  ****     return error ? ERROR : NO_ERROR;
 145:RTC_Driver.c  **** }
 153              		.loc 1 145 0
 154 0026 201C     		adds	r0, r4, #0
 155 0028 18BF     		it	ne
 156 002a 0120     		movne	r0, #1
 157 002c 70BD     		pop	{r4, r5, r6, pc}
 158              		.cfi_endproc
 159              	.LFE66:
 160              		.size	RTC_WriteRegister, .-RTC_WriteRegister
 161 002e 00BF     		.section	.text.set_RTC,"ax",%progbits
 162              		.align	2
 163              		.global	set_RTC
 164              		.thumb
 165              		.thumb_func
 166              		.type	set_RTC, %function
 167              	set_RTC:
 168              	.LFB63:
  43:RTC_Driver.c  ****     
 169              		.loc 1 43 0
 170              		.cfi_startproc
 171              		@ args = 8, pretend = 0, frame = 0
 172              		@ frame_needed = 0, uses_anonymous_args = 0
 173              	.LVL20:
 174 0000 70B5     		push	{r4, r5, r6, lr}
 175              		.cfi_def_cfa_offset 16
 176              		.cfi_offset 4, -16
 177              		.cfi_offset 5, -12
 178              		.cfi_offset 6, -8
 179              		.cfi_offset 14, -4
 180 0002 0E46     		mov	r6, r1
 181 0004 1546     		mov	r5, r2
 182 0006 1C46     		mov	r4, r3
  45:RTC_Driver.c  ****     if(error == ERROR) {
 183              		.loc 1 45 0
 184 0008 0246     		mov	r2, r0
 185              	.LVL21:
 186 000a 0021     		movs	r1, #0
 187              	.LVL22:
 188 000c 6820     		movs	r0, #104
 189              	.LVL23:
 190 000e FFF7FEFF 		bl	RTC_WriteRegister
 191              	.LVL24:
  46:RTC_Driver.c  ****         UART_1_PutString("Error in setting the RTC seconds");
 192              		.loc 1 46 0
 193 0012 0128     		cmp	r0, #1
 194 0014 02D1     		bne	.L9
ARM GAS  C:\Users\lucac\AppData\Local\Temp\ccXGXCNJ.s 			page 7


  47:RTC_Driver.c  ****     }
 195              		.loc 1 47 0
 196 0016 1C48     		ldr	r0, .L16
 197              	.LVL25:
 198 0018 FFF7FEFF 		bl	UART_1_PutString
 199              	.LVL26:
 200              	.L9:
  50:RTC_Driver.c  ****     if(error == ERROR) {
 201              		.loc 1 50 0
 202 001c 3246     		mov	r2, r6
 203 001e 0121     		movs	r1, #1
 204 0020 6820     		movs	r0, #104
 205 0022 FFF7FEFF 		bl	RTC_WriteRegister
 206              	.LVL27:
  51:RTC_Driver.c  ****         UART_1_PutString("Error in setting the RTC minutes");
 207              		.loc 1 51 0
 208 0026 0128     		cmp	r0, #1
 209 0028 02D1     		bne	.L10
  52:RTC_Driver.c  ****     }
 210              		.loc 1 52 0
 211 002a 1848     		ldr	r0, .L16+4
 212              	.LVL28:
 213 002c FFF7FEFF 		bl	UART_1_PutString
 214              	.LVL29:
 215              	.L10:
  55:RTC_Driver.c  ****     if(error == ERROR) {
 216              		.loc 1 55 0
 217 0030 2A46     		mov	r2, r5
 218 0032 0221     		movs	r1, #2
 219 0034 6820     		movs	r0, #104
 220 0036 FFF7FEFF 		bl	RTC_WriteRegister
 221              	.LVL30:
  56:RTC_Driver.c  ****         UART_1_PutString("Error in setting the RTC hours");
 222              		.loc 1 56 0
 223 003a 0128     		cmp	r0, #1
 224 003c 02D1     		bne	.L11
  57:RTC_Driver.c  ****     }
 225              		.loc 1 57 0
 226 003e 1448     		ldr	r0, .L16+8
 227              	.LVL31:
 228 0040 FFF7FEFF 		bl	UART_1_PutString
 229              	.LVL32:
 230              	.L11:
  60:RTC_Driver.c  ****     if(error == ERROR) {
 231              		.loc 1 60 0
 232 0044 2246     		mov	r2, r4
 233 0046 0421     		movs	r1, #4
 234 0048 6820     		movs	r0, #104
 235 004a FFF7FEFF 		bl	RTC_WriteRegister
 236              	.LVL33:
  61:RTC_Driver.c  ****         UART_1_PutString("Error in setting the RTC date");
 237              		.loc 1 61 0
 238 004e 0128     		cmp	r0, #1
 239 0050 02D1     		bne	.L12
  62:RTC_Driver.c  ****     }
 240              		.loc 1 62 0
 241 0052 1048     		ldr	r0, .L16+12
ARM GAS  C:\Users\lucac\AppData\Local\Temp\ccXGXCNJ.s 			page 8


 242              	.LVL34:
 243 0054 FFF7FEFF 		bl	UART_1_PutString
 244              	.LVL35:
 245              	.L12:
  65:RTC_Driver.c  ****     if(error == ERROR) {
 246              		.loc 1 65 0
 247 0058 9DF81020 		ldrb	r2, [sp, #16]	@ zero_extendqisi2
 248 005c 0521     		movs	r1, #5
 249 005e 6820     		movs	r0, #104
 250 0060 FFF7FEFF 		bl	RTC_WriteRegister
 251              	.LVL36:
  66:RTC_Driver.c  ****         UART_1_PutString("Error in setting the RTC month");
 252              		.loc 1 66 0
 253 0064 0128     		cmp	r0, #1
 254 0066 02D1     		bne	.L13
  67:RTC_Driver.c  ****     }
 255              		.loc 1 67 0
 256 0068 0B48     		ldr	r0, .L16+16
 257              	.LVL37:
 258 006a FFF7FEFF 		bl	UART_1_PutString
 259              	.LVL38:
 260              	.L13:
  70:RTC_Driver.c  ****     if(error == ERROR) {
 261              		.loc 1 70 0
 262 006e 9DF81420 		ldrb	r2, [sp, #20]	@ zero_extendqisi2
 263 0072 0621     		movs	r1, #6
 264 0074 6820     		movs	r0, #104
 265 0076 FFF7FEFF 		bl	RTC_WriteRegister
 266              	.LVL39:
  71:RTC_Driver.c  ****         UART_1_PutString("Error in setting the RTC year");
 267              		.loc 1 71 0
 268 007a 0128     		cmp	r0, #1
 269 007c 02D1     		bne	.L8
  72:RTC_Driver.c  ****     }               
 270              		.loc 1 72 0
 271 007e 0748     		ldr	r0, .L16+20
 272              	.LVL40:
 273 0080 FFF7FEFF 		bl	UART_1_PutString
 274              	.LVL41:
 275              	.L8:
 276 0084 70BD     		pop	{r4, r5, r6, pc}
 277              	.LVL42:
 278              	.L17:
 279 0086 00BF     		.align	2
 280              	.L16:
 281 0088 00000000 		.word	.LC0
 282 008c 24000000 		.word	.LC1
 283 0090 48000000 		.word	.LC2
 284 0094 68000000 		.word	.LC3
 285 0098 88000000 		.word	.LC4
 286 009c A8000000 		.word	.LC5
 287              		.cfi_endproc
 288              	.LFE63:
 289              		.size	set_RTC, .-set_RTC
 290              		.global	__aeabi_i2d
 291              		.global	__aeabi_dadd
 292              		.global	__aeabi_d2uiz
ARM GAS  C:\Users\lucac\AppData\Local\Temp\ccXGXCNJ.s 			page 9


 293              		.global	__aeabi_dmul
 294              		.section	.text.RTC_convert_seconds,"ax",%progbits
 295              		.align	2
 296              		.global	RTC_convert_seconds
 297              		.thumb
 298              		.thumb_func
 299              		.type	RTC_convert_seconds, %function
 300              	RTC_convert_seconds:
 301              	.LFB67:
 146:RTC_Driver.c  **** 
 147:RTC_Driver.c  **** /*------------------------------------------------------------------------
 148:RTC_Driver.c  **** *                        RTC AUXILIARY FUNCTIONS
 149:RTC_Driver.c  **** -------------------------------------------------------------------------*/
 150:RTC_Driver.c  **** /*  RTC CONVERT SECOND
 151:RTC_Driver.c  **** *   \brief: converts the seconds buffer in int
 152:RTC_Driver.c  **** *   \Parameters:
 153:RTC_Driver.c  **** *       @param buffer: 8-bit buffer with information
 154:RTC_Driver.c  **** *   \Return: seconds
 155:RTC_Driver.c  **** */
 156:RTC_Driver.c  **** uint8_t RTC_convert_seconds(uint8_t* buffer) {
 302              		.loc 1 156 0
 303              		.cfi_startproc
 304              		@ args = 0, pretend = 0, frame = 0
 305              		@ frame_needed = 0, uses_anonymous_args = 0
 306              	.LVL43:
 307 0000 2DE97043 		push	{r4, r5, r6, r8, r9, lr}
 308              		.cfi_def_cfa_offset 24
 309              		.cfi_offset 4, -24
 310              		.cfi_offset 5, -20
 311              		.cfi_offset 6, -16
 312              		.cfi_offset 8, -12
 313              		.cfi_offset 9, -8
 314              		.cfi_offset 14, -4
 315 0004 0546     		mov	r5, r0
 316              	.LVL44:
 317              	.LBB2:
 157:RTC_Driver.c  ****     
 158:RTC_Driver.c  ****     uint8_t seconds = 0;
 159:RTC_Driver.c  ****     
 160:RTC_Driver.c  ****     //Bits 0-3 that converts for units
 161:RTC_Driver.c  ****     for(int i = 0; i < 4; i++) {
 318              		.loc 1 161 0
 319 0006 0024     		movs	r4, #0
 320              	.LBE2:
 158:RTC_Driver.c  ****     
 321              		.loc 1 158 0
 322 0008 2646     		mov	r6, r4
 323              	.LBB3:
 324              		.loc 1 161 0
 325 000a 1BE0     		b	.L19
 326              	.LVL45:
 327              	.L21:
 162:RTC_Driver.c  ****         if(*(buffer+i) & (0b00000001<<i)) {
 328              		.loc 1 162 0
 329 000c 2B5D     		ldrb	r3, [r5, r4]	@ zero_extendqisi2
 330 000e 2341     		asrs	r3, r3, r4
 331 0010 13F0010F 		tst	r3, #1
ARM GAS  C:\Users\lucac\AppData\Local\Temp\ccXGXCNJ.s 			page 10


 332 0014 15D0     		beq	.L20
 163:RTC_Driver.c  ****             seconds += pow(2,i);
 333              		.loc 1 163 0
 334 0016 2046     		mov	r0, r4
 335 0018 FFF7FEFF 		bl	__aeabi_i2d
 336              	.LVL46:
 337 001c 0246     		mov	r2, r0
 338 001e 0B46     		mov	r3, r1
 339 0020 0020     		movs	r0, #0
 340 0022 4FF08041 		mov	r1, #1073741824
 341 0026 FFF7FEFF 		bl	pow
 342              	.LVL47:
 343 002a 8046     		mov	r8, r0
 344 002c 8946     		mov	r9, r1
 345 002e 3046     		mov	r0, r6
 346 0030 FFF7FEFF 		bl	__aeabi_i2d
 347              	.LVL48:
 348 0034 4246     		mov	r2, r8
 349 0036 4B46     		mov	r3, r9
 350 0038 FFF7FEFF 		bl	__aeabi_dadd
 351              	.LVL49:
 352 003c FFF7FEFF 		bl	__aeabi_d2uiz
 353              	.LVL50:
 354 0040 C6B2     		uxtb	r6, r0
 355              	.LVL51:
 356              	.L20:
 161:RTC_Driver.c  ****         if(*(buffer+i) & (0b00000001<<i)) {
 357              		.loc 1 161 0 discriminator 2
 358 0042 0134     		adds	r4, r4, #1
 359              	.LVL52:
 360              	.L19:
 161:RTC_Driver.c  ****         if(*(buffer+i) & (0b00000001<<i)) {
 361              		.loc 1 161 0 is_stmt 0 discriminator 1
 362 0044 032C     		cmp	r4, #3
 363 0046 E1DD     		ble	.L21
 364 0048 0424     		movs	r4, #4
 365              	.LVL53:
 366 004a 1FE0     		b	.L22
 367              	.LVL54:
 368              	.L24:
 369              	.LBE3:
 370              	.LBB4:
 164:RTC_Driver.c  ****         }
 165:RTC_Driver.c  ****     }
 166:RTC_Driver.c  ****     
 167:RTC_Driver.c  ****     //Bits 4-7 that converts for units
 168:RTC_Driver.c  ****     for(int j = 4; j < 8; j++) {
 169:RTC_Driver.c  ****         if(*(buffer+j) & (0b00000001<<j)) {
 371              		.loc 1 169 0 is_stmt 1
 372 004c 2B5D     		ldrb	r3, [r5, r4]	@ zero_extendqisi2
 373 004e 2341     		asrs	r3, r3, r4
 374 0050 13F0010F 		tst	r3, #1
 375 0054 19D0     		beq	.L23
 170:RTC_Driver.c  ****             seconds += 10*pow(2,j-4);
 376              		.loc 1 170 0
 377 0056 201F     		subs	r0, r4, #4
 378 0058 FFF7FEFF 		bl	__aeabi_i2d
ARM GAS  C:\Users\lucac\AppData\Local\Temp\ccXGXCNJ.s 			page 11


 379              	.LVL55:
 380 005c 0246     		mov	r2, r0
 381 005e 0B46     		mov	r3, r1
 382 0060 0020     		movs	r0, #0
 383 0062 4FF08041 		mov	r1, #1073741824
 384 0066 FFF7FEFF 		bl	pow
 385              	.LVL56:
 386 006a 0022     		movs	r2, #0
 387 006c 0A4B     		ldr	r3, .L26
 388 006e FFF7FEFF 		bl	__aeabi_dmul
 389              	.LVL57:
 390 0072 8046     		mov	r8, r0
 391 0074 8946     		mov	r9, r1
 392 0076 3046     		mov	r0, r6
 393 0078 FFF7FEFF 		bl	__aeabi_i2d
 394              	.LVL58:
 395 007c 4246     		mov	r2, r8
 396 007e 4B46     		mov	r3, r9
 397 0080 FFF7FEFF 		bl	__aeabi_dadd
 398              	.LVL59:
 399 0084 FFF7FEFF 		bl	__aeabi_d2uiz
 400              	.LVL60:
 401 0088 C6B2     		uxtb	r6, r0
 402              	.LVL61:
 403              	.L23:
 168:RTC_Driver.c  ****         if(*(buffer+j) & (0b00000001<<j)) {
 404              		.loc 1 168 0 discriminator 2
 405 008a 0134     		adds	r4, r4, #1
 406              	.LVL62:
 407              	.L22:
 168:RTC_Driver.c  ****         if(*(buffer+j) & (0b00000001<<j)) {
 408              		.loc 1 168 0 is_stmt 0 discriminator 1
 409 008c 072C     		cmp	r4, #7
 410 008e DDDD     		ble	.L24
 411              	.LBE4:
 171:RTC_Driver.c  ****         }
 172:RTC_Driver.c  ****     }
 173:RTC_Driver.c  ****     
 174:RTC_Driver.c  ****     return seconds;
 175:RTC_Driver.c  **** }
 412              		.loc 1 175 0 is_stmt 1
 413 0090 3046     		mov	r0, r6
 414 0092 BDE87083 		pop	{r4, r5, r6, r8, r9, pc}
 415              	.LVL63:
 416              	.L27:
 417 0096 00BF     		.align	2
 418              	.L26:
 419 0098 00002440 		.word	1076101120
 420              		.cfi_endproc
 421              	.LFE67:
 422              		.size	RTC_convert_seconds, .-RTC_convert_seconds
 423              		.section	.text.RTC_convert_minutes,"ax",%progbits
 424              		.align	2
 425              		.global	RTC_convert_minutes
 426              		.thumb
 427              		.thumb_func
 428              		.type	RTC_convert_minutes, %function
ARM GAS  C:\Users\lucac\AppData\Local\Temp\ccXGXCNJ.s 			page 12


 429              	RTC_convert_minutes:
 430              	.LFB68:
 176:RTC_Driver.c  **** 
 177:RTC_Driver.c  **** /*  RTC CONVERT MINUTES
 178:RTC_Driver.c  **** *   \brief: converts the minute buffer in int
 179:RTC_Driver.c  **** *   \Parameters:
 180:RTC_Driver.c  **** *       @param buffer: 8-bit buffer with information
 181:RTC_Driver.c  **** *   \Return: minutes
 182:RTC_Driver.c  **** */
 183:RTC_Driver.c  **** uint8_t RTC_convert_minutes(uint8_t* buffer) {
 431              		.loc 1 183 0
 432              		.cfi_startproc
 433              		@ args = 0, pretend = 0, frame = 0
 434              		@ frame_needed = 0, uses_anonymous_args = 0
 435              	.LVL64:
 436 0000 2DE97043 		push	{r4, r5, r6, r8, r9, lr}
 437              		.cfi_def_cfa_offset 24
 438              		.cfi_offset 4, -24
 439              		.cfi_offset 5, -20
 440              		.cfi_offset 6, -16
 441              		.cfi_offset 8, -12
 442              		.cfi_offset 9, -8
 443              		.cfi_offset 14, -4
 444 0004 0546     		mov	r5, r0
 445              	.LVL65:
 446              	.LBB5:
 184:RTC_Driver.c  ****     
 185:RTC_Driver.c  ****     uint8_t minutes = 0;
 186:RTC_Driver.c  ****     
 187:RTC_Driver.c  ****     //Bits 0-3 that converts for units
 188:RTC_Driver.c  ****     for(int i = 0; i < 4; i++) {
 447              		.loc 1 188 0
 448 0006 0024     		movs	r4, #0
 449              	.LBE5:
 185:RTC_Driver.c  ****     
 450              		.loc 1 185 0
 451 0008 2646     		mov	r6, r4
 452              	.LBB6:
 453              		.loc 1 188 0
 454 000a 1BE0     		b	.L29
 455              	.LVL66:
 456              	.L31:
 189:RTC_Driver.c  ****         if(*(buffer+i) & (0b00000001<<i)) {
 457              		.loc 1 189 0
 458 000c 2B5D     		ldrb	r3, [r5, r4]	@ zero_extendqisi2
 459 000e 2341     		asrs	r3, r3, r4
 460 0010 13F0010F 		tst	r3, #1
 461 0014 15D0     		beq	.L30
 190:RTC_Driver.c  ****             minutes += pow(2,i);
 462              		.loc 1 190 0
 463 0016 2046     		mov	r0, r4
 464 0018 FFF7FEFF 		bl	__aeabi_i2d
 465              	.LVL67:
 466 001c 0246     		mov	r2, r0
 467 001e 0B46     		mov	r3, r1
 468 0020 0020     		movs	r0, #0
 469 0022 4FF08041 		mov	r1, #1073741824
ARM GAS  C:\Users\lucac\AppData\Local\Temp\ccXGXCNJ.s 			page 13


 470 0026 FFF7FEFF 		bl	pow
 471              	.LVL68:
 472 002a 8046     		mov	r8, r0
 473 002c 8946     		mov	r9, r1
 474 002e 3046     		mov	r0, r6
 475 0030 FFF7FEFF 		bl	__aeabi_i2d
 476              	.LVL69:
 477 0034 4246     		mov	r2, r8
 478 0036 4B46     		mov	r3, r9
 479 0038 FFF7FEFF 		bl	__aeabi_dadd
 480              	.LVL70:
 481 003c FFF7FEFF 		bl	__aeabi_d2uiz
 482              	.LVL71:
 483 0040 C6B2     		uxtb	r6, r0
 484              	.LVL72:
 485              	.L30:
 188:RTC_Driver.c  ****         if(*(buffer+i) & (0b00000001<<i)) {
 486              		.loc 1 188 0 discriminator 2
 487 0042 0134     		adds	r4, r4, #1
 488              	.LVL73:
 489              	.L29:
 188:RTC_Driver.c  ****         if(*(buffer+i) & (0b00000001<<i)) {
 490              		.loc 1 188 0 is_stmt 0 discriminator 1
 491 0044 032C     		cmp	r4, #3
 492 0046 E1DD     		ble	.L31
 493 0048 0424     		movs	r4, #4
 494              	.LVL74:
 495 004a 1FE0     		b	.L32
 496              	.LVL75:
 497              	.L34:
 498              	.LBE6:
 499              	.LBB7:
 191:RTC_Driver.c  ****         }
 192:RTC_Driver.c  ****     }
 193:RTC_Driver.c  ****     
 194:RTC_Driver.c  ****     //Bits 4-7 that converts for units
 195:RTC_Driver.c  ****     for(int j = 4; j < 8; j++) {
 196:RTC_Driver.c  ****         if(*(buffer+j) & (0b00000001<<j)) {
 500              		.loc 1 196 0 is_stmt 1
 501 004c 2B5D     		ldrb	r3, [r5, r4]	@ zero_extendqisi2
 502 004e 2341     		asrs	r3, r3, r4
 503 0050 13F0010F 		tst	r3, #1
 504 0054 19D0     		beq	.L33
 197:RTC_Driver.c  ****             minutes += 10*pow(2,j-4);
 505              		.loc 1 197 0
 506 0056 201F     		subs	r0, r4, #4
 507 0058 FFF7FEFF 		bl	__aeabi_i2d
 508              	.LVL76:
 509 005c 0246     		mov	r2, r0
 510 005e 0B46     		mov	r3, r1
 511 0060 0020     		movs	r0, #0
 512 0062 4FF08041 		mov	r1, #1073741824
 513 0066 FFF7FEFF 		bl	pow
 514              	.LVL77:
 515 006a 0022     		movs	r2, #0
 516 006c 0A4B     		ldr	r3, .L36
 517 006e FFF7FEFF 		bl	__aeabi_dmul
ARM GAS  C:\Users\lucac\AppData\Local\Temp\ccXGXCNJ.s 			page 14


 518              	.LVL78:
 519 0072 8046     		mov	r8, r0
 520 0074 8946     		mov	r9, r1
 521 0076 3046     		mov	r0, r6
 522 0078 FFF7FEFF 		bl	__aeabi_i2d
 523              	.LVL79:
 524 007c 4246     		mov	r2, r8
 525 007e 4B46     		mov	r3, r9
 526 0080 FFF7FEFF 		bl	__aeabi_dadd
 527              	.LVL80:
 528 0084 FFF7FEFF 		bl	__aeabi_d2uiz
 529              	.LVL81:
 530 0088 C6B2     		uxtb	r6, r0
 531              	.LVL82:
 532              	.L33:
 195:RTC_Driver.c  ****         if(*(buffer+j) & (0b00000001<<j)) {
 533              		.loc 1 195 0 discriminator 2
 534 008a 0134     		adds	r4, r4, #1
 535              	.LVL83:
 536              	.L32:
 195:RTC_Driver.c  ****         if(*(buffer+j) & (0b00000001<<j)) {
 537              		.loc 1 195 0 is_stmt 0 discriminator 1
 538 008c 072C     		cmp	r4, #7
 539 008e DDDD     		ble	.L34
 540              	.LBE7:
 198:RTC_Driver.c  ****         }
 199:RTC_Driver.c  ****     }
 200:RTC_Driver.c  ****     
 201:RTC_Driver.c  ****     return minutes;
 202:RTC_Driver.c  **** }                                    
 541              		.loc 1 202 0 is_stmt 1
 542 0090 3046     		mov	r0, r6
 543 0092 BDE87083 		pop	{r4, r5, r6, r8, r9, pc}
 544              	.LVL84:
 545              	.L37:
 546 0096 00BF     		.align	2
 547              	.L36:
 548 0098 00002440 		.word	1076101120
 549              		.cfi_endproc
 550              	.LFE68:
 551              		.size	RTC_convert_minutes, .-RTC_convert_minutes
 552              		.section	.text.RTC_convert_hours,"ax",%progbits
 553              		.align	2
 554              		.global	RTC_convert_hours
 555              		.thumb
 556              		.thumb_func
 557              		.type	RTC_convert_hours, %function
 558              	RTC_convert_hours:
 559              	.LFB69:
 203:RTC_Driver.c  **** 
 204:RTC_Driver.c  **** /*  RTC CONVERT HOURS
 205:RTC_Driver.c  **** *   \brief: converts the hours buffer in int
 206:RTC_Driver.c  **** *   \Parameters:
 207:RTC_Driver.c  **** *       @param buffer: 8-bit buffer with information
 208:RTC_Driver.c  **** *   \Return: hours
 209:RTC_Driver.c  **** */
 210:RTC_Driver.c  **** uint8_t RTC_convert_hours(uint8_t* buffer) {
ARM GAS  C:\Users\lucac\AppData\Local\Temp\ccXGXCNJ.s 			page 15


 560              		.loc 1 210 0
 561              		.cfi_startproc
 562              		@ args = 0, pretend = 0, frame = 0
 563              		@ frame_needed = 0, uses_anonymous_args = 0
 564              	.LVL85:
 565 0000 2DE97043 		push	{r4, r5, r6, r8, r9, lr}
 566              		.cfi_def_cfa_offset 24
 567              		.cfi_offset 4, -24
 568              		.cfi_offset 5, -20
 569              		.cfi_offset 6, -16
 570              		.cfi_offset 8, -12
 571              		.cfi_offset 9, -8
 572              		.cfi_offset 14, -4
 573 0004 0546     		mov	r5, r0
 574              	.LVL86:
 575              	.LBB8:
 211:RTC_Driver.c  ****     
 212:RTC_Driver.c  ****     uint8_t hours = 0;
 213:RTC_Driver.c  ****     
 214:RTC_Driver.c  ****     for(int i = 0; i < 4; i++) {
 576              		.loc 1 214 0
 577 0006 0024     		movs	r4, #0
 578              	.LBE8:
 212:RTC_Driver.c  ****     
 579              		.loc 1 212 0
 580 0008 2646     		mov	r6, r4
 581              	.LBB9:
 582              		.loc 1 214 0
 583 000a 1BE0     		b	.L39
 584              	.LVL87:
 585              	.L41:
 215:RTC_Driver.c  ****         if(*(buffer+i) & (0b00000001<<i)) {
 586              		.loc 1 215 0
 587 000c 2B5D     		ldrb	r3, [r5, r4]	@ zero_extendqisi2
 588 000e 2341     		asrs	r3, r3, r4
 589 0010 13F0010F 		tst	r3, #1
 590 0014 15D0     		beq	.L40
 216:RTC_Driver.c  ****             hours += pow(2,i);
 591              		.loc 1 216 0
 592 0016 2046     		mov	r0, r4
 593 0018 FFF7FEFF 		bl	__aeabi_i2d
 594              	.LVL88:
 595 001c 0246     		mov	r2, r0
 596 001e 0B46     		mov	r3, r1
 597 0020 0020     		movs	r0, #0
 598 0022 4FF08041 		mov	r1, #1073741824
 599 0026 FFF7FEFF 		bl	pow
 600              	.LVL89:
 601 002a 8046     		mov	r8, r0
 602 002c 8946     		mov	r9, r1
 603 002e 3046     		mov	r0, r6
 604 0030 FFF7FEFF 		bl	__aeabi_i2d
 605              	.LVL90:
 606 0034 4246     		mov	r2, r8
 607 0036 4B46     		mov	r3, r9
 608 0038 FFF7FEFF 		bl	__aeabi_dadd
 609              	.LVL91:
ARM GAS  C:\Users\lucac\AppData\Local\Temp\ccXGXCNJ.s 			page 16


 610 003c FFF7FEFF 		bl	__aeabi_d2uiz
 611              	.LVL92:
 612 0040 C6B2     		uxtb	r6, r0
 613              	.LVL93:
 614              	.L40:
 214:RTC_Driver.c  ****         if(*(buffer+i) & (0b00000001<<i)) {
 615              		.loc 1 214 0 discriminator 2
 616 0042 0134     		adds	r4, r4, #1
 617              	.LVL94:
 618              	.L39:
 214:RTC_Driver.c  ****         if(*(buffer+i) & (0b00000001<<i)) {
 619              		.loc 1 214 0 is_stmt 0 discriminator 1
 620 0044 032C     		cmp	r4, #3
 621 0046 E1DD     		ble	.L41
 622              	.LBE9:
 217:RTC_Driver.c  ****         }
 218:RTC_Driver.c  ****     }
 219:RTC_Driver.c  ****     
 220:RTC_Driver.c  ****     hours += 10*(*(buffer+4));
 623              		.loc 1 220 0 is_stmt 1
 624 0048 2B79     		ldrb	r3, [r5, #4]	@ zero_extendqisi2
 625 004a 03EB8303 		add	r3, r3, r3, lsl #2
 626 004e 5800     		lsls	r0, r3, #1
 627 0050 3044     		add	r0, r0, r6
 628              	.LVL95:
 221:RTC_Driver.c  ****     
 222:RTC_Driver.c  ****     return hours;
 223:RTC_Driver.c  **** }
 629              		.loc 1 223 0
 630 0052 C0B2     		uxtb	r0, r0
 631 0054 BDE87083 		pop	{r4, r5, r6, r8, r9, pc}
 632              		.cfi_endproc
 633              	.LFE69:
 634              		.size	RTC_convert_hours, .-RTC_convert_hours
 635              		.section	.text.RTC_convert_day,"ax",%progbits
 636              		.align	2
 637              		.global	RTC_convert_day
 638              		.thumb
 639              		.thumb_func
 640              		.type	RTC_convert_day, %function
 641              	RTC_convert_day:
 642              	.LFB70:
 224:RTC_Driver.c  **** 
 225:RTC_Driver.c  **** 
 226:RTC_Driver.c  **** /*  RTC CONVERT DAY
 227:RTC_Driver.c  **** *   \brief: converts the day buffer in int
 228:RTC_Driver.c  **** *   \Parameters:
 229:RTC_Driver.c  **** *       @param buffer: 8-bit buffer with information
 230:RTC_Driver.c  **** *   \Return: day
 231:RTC_Driver.c  **** */
 232:RTC_Driver.c  **** uint8_t RTC_convert_day(uint8_t* buffer) {
 643              		.loc 1 232 0
 644              		.cfi_startproc
 645              		@ args = 0, pretend = 0, frame = 0
 646              		@ frame_needed = 0, uses_anonymous_args = 0
 647              	.LVL96:
 648 0000 2DE97043 		push	{r4, r5, r6, r8, r9, lr}
ARM GAS  C:\Users\lucac\AppData\Local\Temp\ccXGXCNJ.s 			page 17


 649              		.cfi_def_cfa_offset 24
 650              		.cfi_offset 4, -24
 651              		.cfi_offset 5, -20
 652              		.cfi_offset 6, -16
 653              		.cfi_offset 8, -12
 654              		.cfi_offset 9, -8
 655              		.cfi_offset 14, -4
 656 0004 0546     		mov	r5, r0
 657              	.LVL97:
 658              	.LBB10:
 233:RTC_Driver.c  ****     
 234:RTC_Driver.c  ****     uint8_t day = 0;
 235:RTC_Driver.c  ****     
 236:RTC_Driver.c  ****     for(int i = 0; i < 3; i++) {
 659              		.loc 1 236 0
 660 0006 0024     		movs	r4, #0
 661              	.LBE10:
 234:RTC_Driver.c  ****     
 662              		.loc 1 234 0
 663 0008 2646     		mov	r6, r4
 664              	.LBB11:
 665              		.loc 1 236 0
 666 000a 1BE0     		b	.L44
 667              	.LVL98:
 668              	.L46:
 237:RTC_Driver.c  ****         if(*(buffer+i) & (0b00000001<<i)) {
 669              		.loc 1 237 0
 670 000c 2B5D     		ldrb	r3, [r5, r4]	@ zero_extendqisi2
 671 000e 2341     		asrs	r3, r3, r4
 672 0010 13F0010F 		tst	r3, #1
 673 0014 15D0     		beq	.L45
 238:RTC_Driver.c  ****             day += pow(2,i);
 674              		.loc 1 238 0
 675 0016 2046     		mov	r0, r4
 676 0018 FFF7FEFF 		bl	__aeabi_i2d
 677              	.LVL99:
 678 001c 0246     		mov	r2, r0
 679 001e 0B46     		mov	r3, r1
 680 0020 0020     		movs	r0, #0
 681 0022 4FF08041 		mov	r1, #1073741824
 682 0026 FFF7FEFF 		bl	pow
 683              	.LVL100:
 684 002a 8046     		mov	r8, r0
 685 002c 8946     		mov	r9, r1
 686 002e 3046     		mov	r0, r6
 687 0030 FFF7FEFF 		bl	__aeabi_i2d
 688              	.LVL101:
 689 0034 4246     		mov	r2, r8
 690 0036 4B46     		mov	r3, r9
 691 0038 FFF7FEFF 		bl	__aeabi_dadd
 692              	.LVL102:
 693 003c FFF7FEFF 		bl	__aeabi_d2uiz
 694              	.LVL103:
 695 0040 C6B2     		uxtb	r6, r0
 696              	.LVL104:
 697              	.L45:
 236:RTC_Driver.c  ****         if(*(buffer+i) & (0b00000001<<i)) {
ARM GAS  C:\Users\lucac\AppData\Local\Temp\ccXGXCNJ.s 			page 18


 698              		.loc 1 236 0 discriminator 2
 699 0042 0134     		adds	r4, r4, #1
 700              	.LVL105:
 701              	.L44:
 236:RTC_Driver.c  ****         if(*(buffer+i) & (0b00000001<<i)) {
 702              		.loc 1 236 0 is_stmt 0 discriminator 1
 703 0044 022C     		cmp	r4, #2
 704 0046 E1DD     		ble	.L46
 705              	.LBE11:
 239:RTC_Driver.c  ****         }
 240:RTC_Driver.c  ****     }
 241:RTC_Driver.c  ****     
 242:RTC_Driver.c  ****     return day;
 243:RTC_Driver.c  **** }
 706              		.loc 1 243 0 is_stmt 1
 707 0048 3046     		mov	r0, r6
 708 004a BDE87083 		pop	{r4, r5, r6, r8, r9, pc}
 709              		.cfi_endproc
 710              	.LFE70:
 711              		.size	RTC_convert_day, .-RTC_convert_day
 712 004e 00BF     		.section	.text.RTC_convert_month,"ax",%progbits
 713              		.align	2
 714              		.global	RTC_convert_month
 715              		.thumb
 716              		.thumb_func
 717              		.type	RTC_convert_month, %function
 718              	RTC_convert_month:
 719              	.LFB71:
 244:RTC_Driver.c  **** 
 245:RTC_Driver.c  **** /*  RTC CONVERT MONTH
 246:RTC_Driver.c  **** *   \brief: converts the month buffer in int
 247:RTC_Driver.c  **** *   \Parameters:
 248:RTC_Driver.c  **** *       @param buffer: 8-bit buffer with information
 249:RTC_Driver.c  **** *   \Return: month
 250:RTC_Driver.c  **** */
 251:RTC_Driver.c  **** uint8_t RTC_convert_month(uint8_t* buffer) {
 720              		.loc 1 251 0
 721              		.cfi_startproc
 722              		@ args = 0, pretend = 0, frame = 0
 723              		@ frame_needed = 0, uses_anonymous_args = 0
 724              	.LVL106:
 725 0000 2DE97043 		push	{r4, r5, r6, r8, r9, lr}
 726              		.cfi_def_cfa_offset 24
 727              		.cfi_offset 4, -24
 728              		.cfi_offset 5, -20
 729              		.cfi_offset 6, -16
 730              		.cfi_offset 8, -12
 731              		.cfi_offset 9, -8
 732              		.cfi_offset 14, -4
 733 0004 0546     		mov	r5, r0
 734              	.LVL107:
 735              	.LBB12:
 252:RTC_Driver.c  ****     
 253:RTC_Driver.c  ****     uint8_t month = 0;
 254:RTC_Driver.c  ****     
 255:RTC_Driver.c  ****     for(int i = 0; i < 3; i++) {
 736              		.loc 1 255 0
ARM GAS  C:\Users\lucac\AppData\Local\Temp\ccXGXCNJ.s 			page 19


 737 0006 0024     		movs	r4, #0
 738              	.LBE12:
 253:RTC_Driver.c  ****     
 739              		.loc 1 253 0
 740 0008 2646     		mov	r6, r4
 741              	.LBB13:
 742              		.loc 1 255 0
 743 000a 1BE0     		b	.L49
 744              	.LVL108:
 745              	.L51:
 256:RTC_Driver.c  ****         if(*(buffer+i) & (0b00000001<<i)) {
 746              		.loc 1 256 0
 747 000c 2B5D     		ldrb	r3, [r5, r4]	@ zero_extendqisi2
 748 000e 2341     		asrs	r3, r3, r4
 749 0010 13F0010F 		tst	r3, #1
 750 0014 15D0     		beq	.L50
 257:RTC_Driver.c  ****             month += pow(2,i);
 751              		.loc 1 257 0
 752 0016 2046     		mov	r0, r4
 753 0018 FFF7FEFF 		bl	__aeabi_i2d
 754              	.LVL109:
 755 001c 0246     		mov	r2, r0
 756 001e 0B46     		mov	r3, r1
 757 0020 0020     		movs	r0, #0
 758 0022 4FF08041 		mov	r1, #1073741824
 759 0026 FFF7FEFF 		bl	pow
 760              	.LVL110:
 761 002a 8046     		mov	r8, r0
 762 002c 8946     		mov	r9, r1
 763 002e 3046     		mov	r0, r6
 764 0030 FFF7FEFF 		bl	__aeabi_i2d
 765              	.LVL111:
 766 0034 4246     		mov	r2, r8
 767 0036 4B46     		mov	r3, r9
 768 0038 FFF7FEFF 		bl	__aeabi_dadd
 769              	.LVL112:
 770 003c FFF7FEFF 		bl	__aeabi_d2uiz
 771              	.LVL113:
 772 0040 C6B2     		uxtb	r6, r0
 773              	.LVL114:
 774              	.L50:
 255:RTC_Driver.c  ****         if(*(buffer+i) & (0b00000001<<i)) {
 775              		.loc 1 255 0 discriminator 2
 776 0042 0134     		adds	r4, r4, #1
 777              	.LVL115:
 778              	.L49:
 255:RTC_Driver.c  ****         if(*(buffer+i) & (0b00000001<<i)) {
 779              		.loc 1 255 0 is_stmt 0 discriminator 1
 780 0044 022C     		cmp	r4, #2
 781 0046 E1DD     		ble	.L51
 782              	.LBE13:
 258:RTC_Driver.c  ****         }
 259:RTC_Driver.c  ****     }
 260:RTC_Driver.c  ****     
 261:RTC_Driver.c  ****     month += 10*(*(buffer+4));
 783              		.loc 1 261 0 is_stmt 1
 784 0048 2B79     		ldrb	r3, [r5, #4]	@ zero_extendqisi2
ARM GAS  C:\Users\lucac\AppData\Local\Temp\ccXGXCNJ.s 			page 20


 785 004a 03EB8303 		add	r3, r3, r3, lsl #2
 786 004e 5800     		lsls	r0, r3, #1
 787 0050 3044     		add	r0, r0, r6
 788              	.LVL116:
 262:RTC_Driver.c  ****     
 263:RTC_Driver.c  ****     return month;
 264:RTC_Driver.c  **** }
 789              		.loc 1 264 0
 790 0052 C0B2     		uxtb	r0, r0
 791 0054 BDE87083 		pop	{r4, r5, r6, r8, r9, pc}
 792              		.cfi_endproc
 793              	.LFE71:
 794              		.size	RTC_convert_month, .-RTC_convert_month
 795              		.section	.text.RTC_convert_year,"ax",%progbits
 796              		.align	2
 797              		.global	RTC_convert_year
 798              		.thumb
 799              		.thumb_func
 800              		.type	RTC_convert_year, %function
 801              	RTC_convert_year:
 802              	.LFB72:
 265:RTC_Driver.c  **** 
 266:RTC_Driver.c  **** /*  RTC CONVERT YEAR
 267:RTC_Driver.c  **** *   \brief: converts the year buffer in int
 268:RTC_Driver.c  **** *   \Parameters:
 269:RTC_Driver.c  **** *       @param buffer: 8-bit buffer with information
 270:RTC_Driver.c  **** *   \Return: year
 271:RTC_Driver.c  **** */
 272:RTC_Driver.c  **** uint8_t RTC_convert_year(uint8_t* buffer) {
 803              		.loc 1 272 0
 804              		.cfi_startproc
 805              		@ args = 0, pretend = 0, frame = 0
 806              		@ frame_needed = 0, uses_anonymous_args = 0
 807              	.LVL117:
 808 0000 2DE97043 		push	{r4, r5, r6, r8, r9, lr}
 809              		.cfi_def_cfa_offset 24
 810              		.cfi_offset 4, -24
 811              		.cfi_offset 5, -20
 812              		.cfi_offset 6, -16
 813              		.cfi_offset 8, -12
 814              		.cfi_offset 9, -8
 815              		.cfi_offset 14, -4
 816 0004 0546     		mov	r5, r0
 817              	.LVL118:
 818              	.LBB14:
 273:RTC_Driver.c  ****     
 274:RTC_Driver.c  ****     uint8_t year = 0;
 275:RTC_Driver.c  ****     
 276:RTC_Driver.c  ****     //Bits 0-3 that converts for units
 277:RTC_Driver.c  ****     for(int i = 0; i < 4; i++) {
 819              		.loc 1 277 0
 820 0006 0024     		movs	r4, #0
 821              	.LBE14:
 274:RTC_Driver.c  ****     
 822              		.loc 1 274 0
 823 0008 2646     		mov	r6, r4
 824              	.LBB15:
ARM GAS  C:\Users\lucac\AppData\Local\Temp\ccXGXCNJ.s 			page 21


 825              		.loc 1 277 0
 826 000a 1BE0     		b	.L54
 827              	.LVL119:
 828              	.L56:
 278:RTC_Driver.c  ****         if(*(buffer+i) & (0b00000001<<i)) {
 829              		.loc 1 278 0
 830 000c 2B5D     		ldrb	r3, [r5, r4]	@ zero_extendqisi2
 831 000e 2341     		asrs	r3, r3, r4
 832 0010 13F0010F 		tst	r3, #1
 833 0014 15D0     		beq	.L55
 279:RTC_Driver.c  ****             year += pow(2,i);
 834              		.loc 1 279 0
 835 0016 2046     		mov	r0, r4
 836 0018 FFF7FEFF 		bl	__aeabi_i2d
 837              	.LVL120:
 838 001c 0246     		mov	r2, r0
 839 001e 0B46     		mov	r3, r1
 840 0020 0020     		movs	r0, #0
 841 0022 4FF08041 		mov	r1, #1073741824
 842 0026 FFF7FEFF 		bl	pow
 843              	.LVL121:
 844 002a 8046     		mov	r8, r0
 845 002c 8946     		mov	r9, r1
 846 002e 3046     		mov	r0, r6
 847 0030 FFF7FEFF 		bl	__aeabi_i2d
 848              	.LVL122:
 849 0034 4246     		mov	r2, r8
 850 0036 4B46     		mov	r3, r9
 851 0038 FFF7FEFF 		bl	__aeabi_dadd
 852              	.LVL123:
 853 003c FFF7FEFF 		bl	__aeabi_d2uiz
 854              	.LVL124:
 855 0040 C6B2     		uxtb	r6, r0
 856              	.LVL125:
 857              	.L55:
 277:RTC_Driver.c  ****         if(*(buffer+i) & (0b00000001<<i)) {
 858              		.loc 1 277 0 discriminator 2
 859 0042 0134     		adds	r4, r4, #1
 860              	.LVL126:
 861              	.L54:
 277:RTC_Driver.c  ****         if(*(buffer+i) & (0b00000001<<i)) {
 862              		.loc 1 277 0 is_stmt 0 discriminator 1
 863 0044 032C     		cmp	r4, #3
 864 0046 E1DD     		ble	.L56
 865 0048 0424     		movs	r4, #4
 866              	.LVL127:
 867 004a 1FE0     		b	.L57
 868              	.LVL128:
 869              	.L59:
 870              	.LBE15:
 871              	.LBB16:
 280:RTC_Driver.c  ****         }
 281:RTC_Driver.c  ****     }
 282:RTC_Driver.c  ****     
 283:RTC_Driver.c  ****     //Bits 4-7 that converts for units
 284:RTC_Driver.c  ****     for(int j = 4; j < 8; j++) {
 285:RTC_Driver.c  ****         if(*(buffer+j) & (0b00000001<<j)) {
ARM GAS  C:\Users\lucac\AppData\Local\Temp\ccXGXCNJ.s 			page 22


 872              		.loc 1 285 0 is_stmt 1
 873 004c 2B5D     		ldrb	r3, [r5, r4]	@ zero_extendqisi2
 874 004e 2341     		asrs	r3, r3, r4
 875 0050 13F0010F 		tst	r3, #1
 876 0054 19D0     		beq	.L58
 286:RTC_Driver.c  ****             year += 10*pow(2,j-4);
 877              		.loc 1 286 0
 878 0056 201F     		subs	r0, r4, #4
 879 0058 FFF7FEFF 		bl	__aeabi_i2d
 880              	.LVL129:
 881 005c 0246     		mov	r2, r0
 882 005e 0B46     		mov	r3, r1
 883 0060 0020     		movs	r0, #0
 884 0062 4FF08041 		mov	r1, #1073741824
 885 0066 FFF7FEFF 		bl	pow
 886              	.LVL130:
 887 006a 0022     		movs	r2, #0
 888 006c 0A4B     		ldr	r3, .L61
 889 006e FFF7FEFF 		bl	__aeabi_dmul
 890              	.LVL131:
 891 0072 8046     		mov	r8, r0
 892 0074 8946     		mov	r9, r1
 893 0076 3046     		mov	r0, r6
 894 0078 FFF7FEFF 		bl	__aeabi_i2d
 895              	.LVL132:
 896 007c 4246     		mov	r2, r8
 897 007e 4B46     		mov	r3, r9
 898 0080 FFF7FEFF 		bl	__aeabi_dadd
 899              	.LVL133:
 900 0084 FFF7FEFF 		bl	__aeabi_d2uiz
 901              	.LVL134:
 902 0088 C6B2     		uxtb	r6, r0
 903              	.LVL135:
 904              	.L58:
 284:RTC_Driver.c  ****         if(*(buffer+j) & (0b00000001<<j)) {
 905              		.loc 1 284 0 discriminator 2
 906 008a 0134     		adds	r4, r4, #1
 907              	.LVL136:
 908              	.L57:
 284:RTC_Driver.c  ****         if(*(buffer+j) & (0b00000001<<j)) {
 909              		.loc 1 284 0 is_stmt 0 discriminator 1
 910 008c 072C     		cmp	r4, #7
 911 008e DDDD     		ble	.L59
 912              	.LBE16:
 287:RTC_Driver.c  ****         }
 288:RTC_Driver.c  ****     }
 289:RTC_Driver.c  ****     
 290:RTC_Driver.c  ****     return year;
 291:RTC_Driver.c  **** } 
 913              		.loc 1 291 0 is_stmt 1
 914 0090 3046     		mov	r0, r6
 915 0092 BDE87083 		pop	{r4, r5, r6, r8, r9, pc}
 916              	.LVL137:
 917              	.L62:
 918 0096 00BF     		.align	2
 919              	.L61:
 920 0098 00002440 		.word	1076101120
ARM GAS  C:\Users\lucac\AppData\Local\Temp\ccXGXCNJ.s 			page 23


 921              		.cfi_endproc
 922              	.LFE72:
 923              		.size	RTC_convert_year, .-RTC_convert_year
 924              		.comm	Current_time,8,4
 925              		.section	.rodata.str1.4,"aMS",%progbits,1
 926              		.align	2
 927              	.LC0:
 928 0000 4572726F 		.ascii	"Error in setting the RTC seconds\000"
 928      7220696E 
 928      20736574 
 928      74696E67 
 928      20746865 
 929 0021 000000   		.space	3
 930              	.LC1:
 931 0024 4572726F 		.ascii	"Error in setting the RTC minutes\000"
 931      7220696E 
 931      20736574 
 931      74696E67 
 931      20746865 
 932 0045 000000   		.space	3
 933              	.LC2:
 934 0048 4572726F 		.ascii	"Error in setting the RTC hours\000"
 934      7220696E 
 934      20736574 
 934      74696E67 
 934      20746865 
 935 0067 00       		.space	1
 936              	.LC3:
 937 0068 4572726F 		.ascii	"Error in setting the RTC date\000"
 937      7220696E 
 937      20736574 
 937      74696E67 
 937      20746865 
 938 0086 0000     		.space	2
 939              	.LC4:
 940 0088 4572726F 		.ascii	"Error in setting the RTC month\000"
 940      7220696E 
 940      20736574 
 940      74696E67 
 940      20746865 
 941 00a7 00       		.space	1
 942              	.LC5:
 943 00a8 4572726F 		.ascii	"Error in setting the RTC year\000"
 943      7220696E 
 943      20736574 
 943      74696E67 
 943      20746865 
 944              		.text
 945              	.Letext0:
 946              		.file 2 "c:\\program files (x86)\\cypress\\psoc creator\\4.4\\psoc creator\\import\\gnu\\arm\\5.4.
 947              		.file 3 "c:\\program files (x86)\\cypress\\psoc creator\\4.4\\psoc creator\\import\\gnu\\arm\\5.4.
 948              		.file 4 "Generated_Source\\PSoC5/cytypes.h"
 949              		.file 5 "./ErrorCodes.h"
 950              		.file 6 "Generated_Source\\PSoC5/core_cm3.h"
 951              		.file 7 "RTC_Driver.h"
 952              		.file 8 "Generated_Source\\PSoC5/I2COLED.h"
 953              		.file 9 "Generated_Source\\PSoC5/UART_1.h"
ARM GAS  C:\Users\lucac\AppData\Local\Temp\ccXGXCNJ.s 			page 24


 954              		.file 10 "c:\\program files (x86)\\cypress\\psoc creator\\4.4\\psoc creator\\import\\gnu\\arm\\5.4